Archive member included to satisfy reference by file (symbol)

d:/11.2 2022.02/bin/../lib/gcc/arm-none-eabi/11.2.1/thumb/v7e-m+fp/hard\libc.a(lib_a-exit.o)
                              d:/11.2 2022.02/bin/../lib/gcc/arm-none-eabi/11.2.1/thumb/v7e-m+fp/hard/crt0.o (exit)
d:/11.2 2022.02/bin/../lib/gcc/arm-none-eabi/11.2.1/thumb/v7e-m+fp/hard\libc.a(lib_a-impure.o)
                              d:/11.2 2022.02/bin/../lib/gcc/arm-none-eabi/11.2.1/thumb/v7e-m+fp/hard\libc.a(lib_a-exit.o) (_global_impure_ptr)
d:/11.2 2022.02/bin/../lib/gcc/arm-none-eabi/11.2.1/thumb/v7e-m+fp/hard\libc.a(lib_a-init.o)
                              d:/11.2 2022.02/bin/../lib/gcc/arm-none-eabi/11.2.1/thumb/v7e-m+fp/hard/crt0.o (__libc_init_array)
d:/11.2 2022.02/bin/../lib/gcc/arm-none-eabi/11.2.1/thumb/v7e-m+fp/hard\libc.a(lib_a-memset.o)
                              d:/11.2 2022.02/bin/../lib/gcc/arm-none-eabi/11.2.1/thumb/v7e-m+fp/hard/crt0.o (memset)
d:/11.2 2022.02/bin/../lib/gcc/arm-none-eabi/11.2.1/thumb/v7e-m+fp/hard\libc.a(lib_a-strlen.o)
                              build/usart.o (strlen)
d:/11.2 2022.02/bin/../lib/gcc/arm-none-eabi/11.2.1/thumb/v7e-m+fp/hard\libc.a(lib_a-vsprintf.o)
                              build/usart.o (vsprintf)
d:/11.2 2022.02/bin/../lib/gcc/arm-none-eabi/11.2.1/thumb/v7e-m+fp/hard\libc.a(lib_a-__call_atexit.o)
                              d:/11.2 2022.02/bin/../lib/gcc/arm-none-eabi/11.2.1/thumb/v7e-m+fp/hard\libc.a(lib_a-exit.o) (__call_exitprocs)
d:/11.2 2022.02/bin/../lib/gcc/arm-none-eabi/11.2.1/thumb/v7e-m+fp/hard\libc.a(lib_a-svfprintf.o)
                              d:/11.2 2022.02/bin/../lib/gcc/arm-none-eabi/11.2.1/thumb/v7e-m+fp/hard\libc.a(lib_a-vsprintf.o) (_svfprintf_r)
d:/11.2 2022.02/bin/../lib/gcc/arm-none-eabi/11.2.1/thumb/v7e-m+fp/hard\libc.a(lib_a-wcrtomb.o)
                              d:/11.2 2022.02/bin/../lib/gcc/arm-none-eabi/11.2.1/thumb/v7e-m+fp/hard\libc.a(lib_a-svfprintf.o) (_wcrtomb_r)
d:/11.2 2022.02/bin/../lib/gcc/arm-none-eabi/11.2.1/thumb/v7e-m+fp/hard\libc.a(lib_a-wcsrtombs.o)
                              d:/11.2 2022.02/bin/../lib/gcc/arm-none-eabi/11.2.1/thumb/v7e-m+fp/hard\libc.a(lib_a-svfprintf.o) (_wcsrtombs_r)
d:/11.2 2022.02/bin/../lib/gcc/arm-none-eabi/11.2.1/thumb/v7e-m+fp/hard\libc.a(lib_a-dtoa.o)
                              d:/11.2 2022.02/bin/../lib/gcc/arm-none-eabi/11.2.1/thumb/v7e-m+fp/hard\libc.a(lib_a-svfprintf.o) (_dtoa_r)
d:/11.2 2022.02/bin/../lib/gcc/arm-none-eabi/11.2.1/thumb/v7e-m+fp/hard\libc.a(lib_a-freer.o)
                              d:/11.2 2022.02/bin/../lib/gcc/arm-none-eabi/11.2.1/thumb/v7e-m+fp/hard\libc.a(lib_a-svfprintf.o) (_free_r)
d:/11.2 2022.02/bin/../lib/gcc/arm-none-eabi/11.2.1/thumb/v7e-m+fp/hard\libc.a(lib_a-localeconv.o)
                              d:/11.2 2022.02/bin/../lib/gcc/arm-none-eabi/11.2.1/thumb/v7e-m+fp/hard\libc.a(lib_a-svfprintf.o) (_localeconv_r)
d:/11.2 2022.02/bin/../lib/gcc/arm-none-eabi/11.2.1/thumb/v7e-m+fp/hard\libc.a(lib_a-locale.o)
                              d:/11.2 2022.02/bin/../lib/gcc/arm-none-eabi/11.2.1/thumb/v7e-m+fp/hard\libc.a(lib_a-svfprintf.o) (__locale_mb_cur_max)
d:/11.2 2022.02/bin/../lib/gcc/arm-none-eabi/11.2.1/thumb/v7e-m+fp/hard\libc.a(lib_a-mallocr.o)
                              d:/11.2 2022.02/bin/../lib/gcc/arm-none-eabi/11.2.1/thumb/v7e-m+fp/hard\libc.a(lib_a-svfprintf.o) (_malloc_r)
d:/11.2 2022.02/bin/../lib/gcc/arm-none-eabi/11.2.1/thumb/v7e-m+fp/hard\libc.a(lib_a-mbtowc_r.o)
                              d:/11.2 2022.02/bin/../lib/gcc/arm-none-eabi/11.2.1/thumb/v7e-m+fp/hard\libc.a(lib_a-locale.o) (__ascii_mbtowc)
d:/11.2 2022.02/bin/../lib/gcc/arm-none-eabi/11.2.1/thumb/v7e-m+fp/hard\libc.a(lib_a-memchr.o)
                              d:/11.2 2022.02/bin/../lib/gcc/arm-none-eabi/11.2.1/thumb/v7e-m+fp/hard\libc.a(lib_a-svfprintf.o) (memchr)
d:/11.2 2022.02/bin/../lib/gcc/arm-none-eabi/11.2.1/thumb/v7e-m+fp/hard\libc.a(lib_a-memcpy.o)
                              d:/11.2 2022.02/bin/../lib/gcc/arm-none-eabi/11.2.1/thumb/v7e-m+fp/hard\libc.a(lib_a-dtoa.o) (memcpy)
d:/11.2 2022.02/bin/../lib/gcc/arm-none-eabi/11.2.1/thumb/v7e-m+fp/hard\libc.a(lib_a-mlock.o)
                              d:/11.2 2022.02/bin/../lib/gcc/arm-none-eabi/11.2.1/thumb/v7e-m+fp/hard\libc.a(lib_a-freer.o) (__malloc_lock)
d:/11.2 2022.02/bin/../lib/gcc/arm-none-eabi/11.2.1/thumb/v7e-m+fp/hard\libc.a(lib_a-mprec.o)
                              d:/11.2 2022.02/bin/../lib/gcc/arm-none-eabi/11.2.1/thumb/v7e-m+fp/hard\libc.a(lib_a-dtoa.o) (_Balloc)
d:/11.2 2022.02/bin/../lib/gcc/arm-none-eabi/11.2.1/thumb/v7e-m+fp/hard\libc.a(lib_a-sbrkr.o)
                              d:/11.2 2022.02/bin/../lib/gcc/arm-none-eabi/11.2.1/thumb/v7e-m+fp/hard\libc.a(lib_a-freer.o) (_sbrk_r)
d:/11.2 2022.02/bin/../lib/gcc/arm-none-eabi/11.2.1/thumb/v7e-m+fp/hard\libc.a(lib_a-s_frexp.o)
                              d:/11.2 2022.02/bin/../lib/gcc/arm-none-eabi/11.2.1/thumb/v7e-m+fp/hard\libc.a(lib_a-svfprintf.o) (frexp)
d:/11.2 2022.02/bin/../lib/gcc/arm-none-eabi/11.2.1/thumb/v7e-m+fp/hard\libc.a(lib_a-strcasecmp.o)
                              d:/11.2 2022.02/bin/../lib/gcc/arm-none-eabi/11.2.1/thumb/v7e-m+fp/hard\libc.a(lib_a-locale.o) (strcasecmp)
d:/11.2 2022.02/bin/../lib/gcc/arm-none-eabi/11.2.1/thumb/v7e-m+fp/hard\libc.a(lib_a-strcat.o)
                              d:/11.2 2022.02/bin/../lib/gcc/arm-none-eabi/11.2.1/thumb/v7e-m+fp/hard\libc.a(lib_a-locale.o) (strcat)
d:/11.2 2022.02/bin/../lib/gcc/arm-none-eabi/11.2.1/thumb/v7e-m+fp/hard\libc.a(lib_a-strchr.o)
                              d:/11.2 2022.02/bin/../lib/gcc/arm-none-eabi/11.2.1/thumb/v7e-m+fp/hard\libc.a(lib_a-locale.o) (strchr)
d:/11.2 2022.02/bin/../lib/gcc/arm-none-eabi/11.2.1/thumb/v7e-m+fp/hard\libc.a(lib_a-strcmp.o)
                              d:/11.2 2022.02/bin/../lib/gcc/arm-none-eabi/11.2.1/thumb/v7e-m+fp/hard\libc.a(lib_a-locale.o) (strcmp)
d:/11.2 2022.02/bin/../lib/gcc/arm-none-eabi/11.2.1/thumb/v7e-m+fp/hard\libc.a(lib_a-strcpy.o)
                              d:/11.2 2022.02/bin/../lib/gcc/arm-none-eabi/11.2.1/thumb/v7e-m+fp/hard\libc.a(lib_a-locale.o) (strcpy)
d:/11.2 2022.02/bin/../lib/gcc/arm-none-eabi/11.2.1/thumb/v7e-m+fp/hard\libc.a(lib_a-strlcpy.o)
                              d:/11.2 2022.02/bin/../lib/gcc/arm-none-eabi/11.2.1/thumb/v7e-m+fp/hard\libc.a(lib_a-locale.o) (strlcpy)
d:/11.2 2022.02/bin/../lib/gcc/arm-none-eabi/11.2.1/thumb/v7e-m+fp/hard\libc.a(lib_a-strncasecmp.o)
                              d:/11.2 2022.02/bin/../lib/gcc/arm-none-eabi/11.2.1/thumb/v7e-m+fp/hard\libc.a(lib_a-locale.o) (strncasecmp)
d:/11.2 2022.02/bin/../lib/gcc/arm-none-eabi/11.2.1/thumb/v7e-m+fp/hard\libc.a(lib_a-strncpy.o)
                              d:/11.2 2022.02/bin/../lib/gcc/arm-none-eabi/11.2.1/thumb/v7e-m+fp/hard\libc.a(lib_a-svfprintf.o) (strncpy)
d:/11.2 2022.02/bin/../lib/gcc/arm-none-eabi/11.2.1/thumb/v7e-m+fp/hard\libc.a(lib_a-strtol.o)
                              d:/11.2 2022.02/bin/../lib/gcc/arm-none-eabi/11.2.1/thumb/v7e-m+fp/hard\libc.a(lib_a-locale.o) (strtol)
d:/11.2 2022.02/bin/../lib/gcc/arm-none-eabi/11.2.1/thumb/v7e-m+fp/hard\libc.a(lib_a-svfiprintf.o)
                              d:/11.2 2022.02/bin/../lib/gcc/arm-none-eabi/11.2.1/thumb/v7e-m+fp/hard\libc.a(lib_a-svfprintf.o) (__ssprint_r)
d:/11.2 2022.02/bin/../lib/gcc/arm-none-eabi/11.2.1/thumb/v7e-m+fp/hard\libc.a(lib_a-wcsnrtombs.o)
                              d:/11.2 2022.02/bin/../lib/gcc/arm-none-eabi/11.2.1/thumb/v7e-m+fp/hard\libc.a(lib_a-wcsrtombs.o) (_wcsnrtombs_r)
d:/11.2 2022.02/bin/../lib/gcc/arm-none-eabi/11.2.1/thumb/v7e-m+fp/hard\libc.a(lib_a-wctomb_r.o)
                              d:/11.2 2022.02/bin/../lib/gcc/arm-none-eabi/11.2.1/thumb/v7e-m+fp/hard\libc.a(lib_a-locale.o) (__ascii_wctomb)
d:/11.2 2022.02/bin/../lib/gcc/arm-none-eabi/11.2.1/thumb/v7e-m+fp/hard\libc.a(lib_a-assert.o)
                              d:/11.2 2022.02/bin/../lib/gcc/arm-none-eabi/11.2.1/thumb/v7e-m+fp/hard\libc.a(lib_a-dtoa.o) (__assert_func)
d:/11.2 2022.02/bin/../lib/gcc/arm-none-eabi/11.2.1/thumb/v7e-m+fp/hard\libc.a(lib_a-callocr.o)
                              d:/11.2 2022.02/bin/../lib/gcc/arm-none-eabi/11.2.1/thumb/v7e-m+fp/hard\libc.a(lib_a-mprec.o) (_calloc_r)
d:/11.2 2022.02/bin/../lib/gcc/arm-none-eabi/11.2.1/thumb/v7e-m+fp/hard\libc.a(lib_a-ctype_.o)
                              d:/11.2 2022.02/bin/../lib/gcc/arm-none-eabi/11.2.1/thumb/v7e-m+fp/hard\libc.a(lib_a-locale.o) (__set_ctype)
d:/11.2 2022.02/bin/../lib/gcc/arm-none-eabi/11.2.1/thumb/v7e-m+fp/hard\libc.a(lib_a-errno.o)
                              d:/11.2 2022.02/bin/../lib/gcc/arm-none-eabi/11.2.1/thumb/v7e-m+fp/hard\libc.a(lib_a-strtol.o) (__errno)
d:/11.2 2022.02/bin/../lib/gcc/arm-none-eabi/11.2.1/thumb/v7e-m+fp/hard\libc.a(lib_a-fiprintf.o)
                              d:/11.2 2022.02/bin/../lib/gcc/arm-none-eabi/11.2.1/thumb/v7e-m+fp/hard\libc.a(lib_a-assert.o) (fiprintf)
d:/11.2 2022.02/bin/../lib/gcc/arm-none-eabi/11.2.1/thumb/v7e-m+fp/hard\libc.a(lib_a-getenv_r.o)
                              d:/11.2 2022.02/bin/../lib/gcc/arm-none-eabi/11.2.1/thumb/v7e-m+fp/hard\libc.a(lib_a-locale.o) (_getenv_r)
d:/11.2 2022.02/bin/../lib/gcc/arm-none-eabi/11.2.1/thumb/v7e-m+fp/hard\libc.a(lib_a-memmove.o)
                              d:/11.2 2022.02/bin/../lib/gcc/arm-none-eabi/11.2.1/thumb/v7e-m+fp/hard\libc.a(lib_a-svfiprintf.o) (memmove)
d:/11.2 2022.02/bin/../lib/gcc/arm-none-eabi/11.2.1/thumb/v7e-m+fp/hard\libc.a(lib_a-reallocr.o)
                              d:/11.2 2022.02/bin/../lib/gcc/arm-none-eabi/11.2.1/thumb/v7e-m+fp/hard\libc.a(lib_a-svfiprintf.o) (_realloc_r)
d:/11.2 2022.02/bin/../lib/gcc/arm-none-eabi/11.2.1/thumb/v7e-m+fp/hard\libc.a(lib_a-reent.o)
                              d:/11.2 2022.02/bin/../lib/gcc/arm-none-eabi/11.2.1/thumb/v7e-m+fp/hard\libc.a(lib_a-sbrkr.o) (errno)
d:/11.2 2022.02/bin/../lib/gcc/arm-none-eabi/11.2.1/thumb/v7e-m+fp/hard\libc.a(lib_a-strncmp.o)
                              d:/11.2 2022.02/bin/../lib/gcc/arm-none-eabi/11.2.1/thumb/v7e-m+fp/hard\libc.a(lib_a-getenv_r.o) (strncmp)
d:/11.2 2022.02/bin/../lib/gcc/arm-none-eabi/11.2.1/thumb/v7e-m+fp/hard\libc.a(lib_a-vfiprintf.o)
                              d:/11.2 2022.02/bin/../lib/gcc/arm-none-eabi/11.2.1/thumb/v7e-m+fp/hard\libc.a(lib_a-fiprintf.o) (_vfiprintf_r)
d:/11.2 2022.02/bin/../lib/gcc/arm-none-eabi/11.2.1/thumb/v7e-m+fp/hard\libc.a(lib_a-wsetup.o)
                              d:/11.2 2022.02/bin/../lib/gcc/arm-none-eabi/11.2.1/thumb/v7e-m+fp/hard\libc.a(lib_a-vfiprintf.o) (__swsetup_r)
d:/11.2 2022.02/bin/../lib/gcc/arm-none-eabi/11.2.1/thumb/v7e-m+fp/hard\libc.a(lib_a-abort.o)
                              d:/11.2 2022.02/bin/../lib/gcc/arm-none-eabi/11.2.1/thumb/v7e-m+fp/hard\libc.a(lib_a-assert.o) (abort)
d:/11.2 2022.02/bin/../lib/gcc/arm-none-eabi/11.2.1/thumb/v7e-m+fp/hard\libc.a(lib_a-environ.o)
                              d:/11.2 2022.02/bin/../lib/gcc/arm-none-eabi/11.2.1/thumb/v7e-m+fp/hard\libc.a(lib_a-getenv_r.o) (environ)
d:/11.2 2022.02/bin/../lib/gcc/arm-none-eabi/11.2.1/thumb/v7e-m+fp/hard\libc.a(lib_a-envlock.o)
                              d:/11.2 2022.02/bin/../lib/gcc/arm-none-eabi/11.2.1/thumb/v7e-m+fp/hard\libc.a(lib_a-getenv_r.o) (__env_lock)
d:/11.2 2022.02/bin/../lib/gcc/arm-none-eabi/11.2.1/thumb/v7e-m+fp/hard\libc.a(lib_a-fflush.o)
                              d:/11.2 2022.02/bin/../lib/gcc/arm-none-eabi/11.2.1/thumb/v7e-m+fp/hard\libc.a(lib_a-vfiprintf.o) (_fflush_r)
d:/11.2 2022.02/bin/../lib/gcc/arm-none-eabi/11.2.1/thumb/v7e-m+fp/hard\libc.a(lib_a-findfp.o)
                              d:/11.2 2022.02/bin/../lib/gcc/arm-none-eabi/11.2.1/thumb/v7e-m+fp/hard\libc.a(lib_a-vfiprintf.o) (__sinit)
d:/11.2 2022.02/bin/../lib/gcc/arm-none-eabi/11.2.1/thumb/v7e-m+fp/hard\libc.a(lib_a-fputwc.o)
                              d:/11.2 2022.02/bin/../lib/gcc/arm-none-eabi/11.2.1/thumb/v7e-m+fp/hard\libc.a(lib_a-vfiprintf.o) (_fputwc_r)
d:/11.2 2022.02/bin/../lib/gcc/arm-none-eabi/11.2.1/thumb/v7e-m+fp/hard\libc.a(lib_a-fvwrite.o)
                              d:/11.2 2022.02/bin/../lib/gcc/arm-none-eabi/11.2.1/thumb/v7e-m+fp/hard\libc.a(lib_a-vfiprintf.o) (__sfvwrite_r)
d:/11.2 2022.02/bin/../lib/gcc/arm-none-eabi/11.2.1/thumb/v7e-m+fp/hard\libc.a(lib_a-fwalk.o)
                              d:/11.2 2022.02/bin/../lib/gcc/arm-none-eabi/11.2.1/thumb/v7e-m+fp/hard\libc.a(lib_a-findfp.o) (_fwalk)
d:/11.2 2022.02/bin/../lib/gcc/arm-none-eabi/11.2.1/thumb/v7e-m+fp/hard\libc.a(lib_a-makebuf.o)
                              d:/11.2 2022.02/bin/../lib/gcc/arm-none-eabi/11.2.1/thumb/v7e-m+fp/hard\libc.a(lib_a-wsetup.o) (__smakebuf_r)
d:/11.2 2022.02/bin/../lib/gcc/arm-none-eabi/11.2.1/thumb/v7e-m+fp/hard\libc.a(lib_a-signal.o)
                              d:/11.2 2022.02/bin/../lib/gcc/arm-none-eabi/11.2.1/thumb/v7e-m+fp/hard\libc.a(lib_a-abort.o) (raise)
d:/11.2 2022.02/bin/../lib/gcc/arm-none-eabi/11.2.1/thumb/v7e-m+fp/hard\libc.a(lib_a-signalr.o)
                              d:/11.2 2022.02/bin/../lib/gcc/arm-none-eabi/11.2.1/thumb/v7e-m+fp/hard\libc.a(lib_a-signal.o) (_kill_r)
d:/11.2 2022.02/bin/../lib/gcc/arm-none-eabi/11.2.1/thumb/v7e-m+fp/hard\libc.a(lib_a-stdio.o)
                              d:/11.2 2022.02/bin/../lib/gcc/arm-none-eabi/11.2.1/thumb/v7e-m+fp/hard\libc.a(lib_a-findfp.o) (__sread)
d:/11.2 2022.02/bin/../lib/gcc/arm-none-eabi/11.2.1/thumb/v7e-m+fp/hard\libc.a(lib_a-wbuf.o)
                              d:/11.2 2022.02/bin/../lib/gcc/arm-none-eabi/11.2.1/thumb/v7e-m+fp/hard\libc.a(lib_a-fputwc.o) (__swbuf_r)
d:/11.2 2022.02/bin/../lib/gcc/arm-none-eabi/11.2.1/thumb/v7e-m+fp/hard\libc.a(lib_a-writer.o)
                              d:/11.2 2022.02/bin/../lib/gcc/arm-none-eabi/11.2.1/thumb/v7e-m+fp/hard\libc.a(lib_a-stdio.o) (_write_r)
d:/11.2 2022.02/bin/../lib/gcc/arm-none-eabi/11.2.1/thumb/v7e-m+fp/hard\libc.a(lib_a-closer.o)
                              d:/11.2 2022.02/bin/../lib/gcc/arm-none-eabi/11.2.1/thumb/v7e-m+fp/hard\libc.a(lib_a-stdio.o) (_close_r)
d:/11.2 2022.02/bin/../lib/gcc/arm-none-eabi/11.2.1/thumb/v7e-m+fp/hard\libc.a(lib_a-fclose.o)
                              d:/11.2 2022.02/bin/../lib/gcc/arm-none-eabi/11.2.1/thumb/v7e-m+fp/hard\libc.a(lib_a-findfp.o) (_fclose_r)
d:/11.2 2022.02/bin/../lib/gcc/arm-none-eabi/11.2.1/thumb/v7e-m+fp/hard\libc.a(lib_a-fstatr.o)
                              d:/11.2 2022.02/bin/../lib/gcc/arm-none-eabi/11.2.1/thumb/v7e-m+fp/hard\libc.a(lib_a-makebuf.o) (_fstat_r)
d:/11.2 2022.02/bin/../lib/gcc/arm-none-eabi/11.2.1/thumb/v7e-m+fp/hard\libc.a(lib_a-isattyr.o)
                              d:/11.2 2022.02/bin/../lib/gcc/arm-none-eabi/11.2.1/thumb/v7e-m+fp/hard\libc.a(lib_a-makebuf.o) (_isatty_r)
d:/11.2 2022.02/bin/../lib/gcc/arm-none-eabi/11.2.1/thumb/v7e-m+fp/hard\libc.a(lib_a-lseekr.o)
                              d:/11.2 2022.02/bin/../lib/gcc/arm-none-eabi/11.2.1/thumb/v7e-m+fp/hard\libc.a(lib_a-stdio.o) (_lseek_r)
d:/11.2 2022.02/bin/../lib/gcc/arm-none-eabi/11.2.1/thumb/v7e-m+fp/hard\libc.a(lib_a-readr.o)
                              d:/11.2 2022.02/bin/../lib/gcc/arm-none-eabi/11.2.1/thumb/v7e-m+fp/hard\libc.a(lib_a-stdio.o) (_read_r)
d:/11.2 2022.02/bin/../lib/gcc/arm-none-eabi/11.2.1/thumb/v7e-m+fp/hard\libm.a(lib_a-s_ceil.o)
                              build/pid.o (ceil)
d:/11.2 2022.02/bin/../lib/gcc/arm-none-eabi/11.2.1/thumb/v7e-m+fp/hard\libm.a(lib_a-s_floor.o)
                              build/pid.o (floor)
d:/11.2 2022.02/bin/../lib/gcc/arm-none-eabi/11.2.1/thumb/v7e-m+fp/hard\libnosys.a(close.o)
                              d:/11.2 2022.02/bin/../lib/gcc/arm-none-eabi/11.2.1/thumb/v7e-m+fp/hard\libc.a(lib_a-closer.o) (_close)
d:/11.2 2022.02/bin/../lib/gcc/arm-none-eabi/11.2.1/thumb/v7e-m+fp/hard\libnosys.a(fstat.o)
                              d:/11.2 2022.02/bin/../lib/gcc/arm-none-eabi/11.2.1/thumb/v7e-m+fp/hard\libc.a(lib_a-fstatr.o) (_fstat)
d:/11.2 2022.02/bin/../lib/gcc/arm-none-eabi/11.2.1/thumb/v7e-m+fp/hard\libnosys.a(getpid.o)
                              d:/11.2 2022.02/bin/../lib/gcc/arm-none-eabi/11.2.1/thumb/v7e-m+fp/hard\libc.a(lib_a-signalr.o) (_getpid)
d:/11.2 2022.02/bin/../lib/gcc/arm-none-eabi/11.2.1/thumb/v7e-m+fp/hard\libnosys.a(isatty.o)
                              d:/11.2 2022.02/bin/../lib/gcc/arm-none-eabi/11.2.1/thumb/v7e-m+fp/hard\libc.a(lib_a-isattyr.o) (_isatty)
d:/11.2 2022.02/bin/../lib/gcc/arm-none-eabi/11.2.1/thumb/v7e-m+fp/hard\libnosys.a(kill.o)
                              d:/11.2 2022.02/bin/../lib/gcc/arm-none-eabi/11.2.1/thumb/v7e-m+fp/hard\libc.a(lib_a-signalr.o) (_kill)
d:/11.2 2022.02/bin/../lib/gcc/arm-none-eabi/11.2.1/thumb/v7e-m+fp/hard\libnosys.a(lseek.o)
                              d:/11.2 2022.02/bin/../lib/gcc/arm-none-eabi/11.2.1/thumb/v7e-m+fp/hard\libc.a(lib_a-lseekr.o) (_lseek)
d:/11.2 2022.02/bin/../lib/gcc/arm-none-eabi/11.2.1/thumb/v7e-m+fp/hard\libnosys.a(read.o)
                              d:/11.2 2022.02/bin/../lib/gcc/arm-none-eabi/11.2.1/thumb/v7e-m+fp/hard\libc.a(lib_a-readr.o) (_read)
d:/11.2 2022.02/bin/../lib/gcc/arm-none-eabi/11.2.1/thumb/v7e-m+fp/hard\libnosys.a(sbrk.o)
                              d:/11.2 2022.02/bin/../lib/gcc/arm-none-eabi/11.2.1/thumb/v7e-m+fp/hard\libc.a(lib_a-sbrkr.o) (_sbrk)
d:/11.2 2022.02/bin/../lib/gcc/arm-none-eabi/11.2.1/thumb/v7e-m+fp/hard\libnosys.a(write.o)
                              d:/11.2 2022.02/bin/../lib/gcc/arm-none-eabi/11.2.1/thumb/v7e-m+fp/hard\libc.a(lib_a-writer.o) (_write)
d:/11.2 2022.02/bin/../lib/gcc/arm-none-eabi/11.2.1/thumb/v7e-m+fp/hard\libnosys.a(_exit.o)
                              d:/11.2 2022.02/bin/../lib/gcc/arm-none-eabi/11.2.1/thumb/v7e-m+fp/hard\libc.a(lib_a-exit.o) (_exit)
d:/11.2 2022.02/bin/../lib/gcc/arm-none-eabi/11.2.1/thumb/v7e-m+fp/hard\libgcc.a(_arm_muldf3.o)
                              build/inverse_kinematics.o (__aeabi_dmul)
d:/11.2 2022.02/bin/../lib/gcc/arm-none-eabi/11.2.1/thumb/v7e-m+fp/hard\libgcc.a(_arm_addsubdf3.o)
                              build/main.o (__aeabi_dsub)
d:/11.2 2022.02/bin/../lib/gcc/arm-none-eabi/11.2.1/thumb/v7e-m+fp/hard\libgcc.a(_arm_muldivdf3.o)
                              build/inverse_kinematics.o (__aeabi_ddiv)
d:/11.2 2022.02/bin/../lib/gcc/arm-none-eabi/11.2.1/thumb/v7e-m+fp/hard\libgcc.a(_arm_cmpdf2.o)
                              d:/11.2 2022.02/bin/../lib/gcc/arm-none-eabi/11.2.1/thumb/v7e-m+fp/hard\libc.a(lib_a-svfprintf.o) (__aeabi_dcmpeq)
d:/11.2 2022.02/bin/../lib/gcc/arm-none-eabi/11.2.1/thumb/v7e-m+fp/hard\libgcc.a(_arm_unorddf2.o)
                              d:/11.2 2022.02/bin/../lib/gcc/arm-none-eabi/11.2.1/thumb/v7e-m+fp/hard\libc.a(lib_a-svfprintf.o) (__aeabi_dcmpun)
d:/11.2 2022.02/bin/../lib/gcc/arm-none-eabi/11.2.1/thumb/v7e-m+fp/hard\libgcc.a(_arm_fixdfsi.o)
                              build/pid.o (__aeabi_d2iz)
d:/11.2 2022.02/bin/../lib/gcc/arm-none-eabi/11.2.1/thumb/v7e-m+fp/hard\libgcc.a(_aeabi_uldivmod.o)
                              build/stm32f4xx_hal_rcc.o (__aeabi_uldivmod)
d:/11.2 2022.02/bin/../lib/gcc/arm-none-eabi/11.2.1/thumb/v7e-m+fp/hard\libgcc.a(_udivmoddi4.o)
                              d:/11.2 2022.02/bin/../lib/gcc/arm-none-eabi/11.2.1/thumb/v7e-m+fp/hard\libgcc.a(_aeabi_uldivmod.o) (__udivmoddi4)
d:/11.2 2022.02/bin/../lib/gcc/arm-none-eabi/11.2.1/thumb/v7e-m+fp/hard\libgcc.a(_dvmd_tls.o)
                              d:/11.2 2022.02/bin/../lib/gcc/arm-none-eabi/11.2.1/thumb/v7e-m+fp/hard\libgcc.a(_aeabi_uldivmod.o) (__aeabi_ldiv0)

Discarded input sections

 .text          0x00000000        0x0 d:/11.2 2022.02/bin/../lib/gcc/arm-none-eabi/11.2.1/thumb/v7e-m+fp/hard/crti.o
 .data          0x00000000        0x0 d:/11.2 2022.02/bin/../lib/gcc/arm-none-eabi/11.2.1/thumb/v7e-m+fp/hard/crti.o
 .bss           0x00000000        0x0 d:/11.2 2022.02/bin/../lib/gcc/arm-none-eabi/11.2.1/thumb/v7e-m+fp/hard/crti.o
 .text          0x00000000        0x0 d:/11.2 2022.02/bin/../lib/gcc/arm-none-eabi/11.2.1/thumb/v7e-m+fp/hard/crtbegin.o
 .data          0x00000000        0x0 d:/11.2 2022.02/bin/../lib/gcc/arm-none-eabi/11.2.1/thumb/v7e-m+fp/hard/crtbegin.o
 .bss           0x00000000        0x0 d:/11.2 2022.02/bin/../lib/gcc/arm-none-eabi/11.2.1/thumb/v7e-m+fp/hard/crtbegin.o
 .rodata.all_implied_fbits
                0x00000000       0x24 d:/11.2 2022.02/bin/../lib/gcc/arm-none-eabi/11.2.1/thumb/v7e-m+fp/hard/crtbegin.o
 .data.__dso_handle
                0x00000000        0x4 d:/11.2 2022.02/bin/../lib/gcc/arm-none-eabi/11.2.1/thumb/v7e-m+fp/hard/crtbegin.o
 .text          0x00000000       0x7c d:/11.2 2022.02/bin/../lib/gcc/arm-none-eabi/11.2.1/thumb/v7e-m+fp/hard/crt0.o
 .data          0x00000000        0x0 d:/11.2 2022.02/bin/../lib/gcc/arm-none-eabi/11.2.1/thumb/v7e-m+fp/hard/crt0.o
 .bss           0x00000000        0x0 d:/11.2 2022.02/bin/../lib/gcc/arm-none-eabi/11.2.1/thumb/v7e-m+fp/hard/crt0.o
 .ARM.extab     0x00000000        0x0 d:/11.2 2022.02/bin/../lib/gcc/arm-none-eabi/11.2.1/thumb/v7e-m+fp/hard/crt0.o
 .ARM.exidx     0x00000000       0x10 d:/11.2 2022.02/bin/../lib/gcc/arm-none-eabi/11.2.1/thumb/v7e-m+fp/hard/crt0.o
 .debug_line    0x00000000       0x76 d:/11.2 2022.02/bin/../lib/gcc/arm-none-eabi/11.2.1/thumb/v7e-m+fp/hard/crt0.o
 .debug_line_str
                0x00000000       0xa6 d:/11.2 2022.02/bin/../lib/gcc/arm-none-eabi/11.2.1/thumb/v7e-m+fp/hard/crt0.o
 .debug_info    0x00000000       0x24 d:/11.2 2022.02/bin/../lib/gcc/arm-none-eabi/11.2.1/thumb/v7e-m+fp/hard/crt0.o
 .debug_abbrev  0x00000000       0x14 d:/11.2 2022.02/bin/../lib/gcc/arm-none-eabi/11.2.1/thumb/v7e-m+fp/hard/crt0.o
 .debug_aranges
                0x00000000       0x20 d:/11.2 2022.02/bin/../lib/gcc/arm-none-eabi/11.2.1/thumb/v7e-m+fp/hard/crt0.o
 .debug_str     0x00000000       0xa3 d:/11.2 2022.02/bin/../lib/gcc/arm-none-eabi/11.2.1/thumb/v7e-m+fp/hard/crt0.o
 .ARM.attributes
                0x00000000       0x1c d:/11.2 2022.02/bin/../lib/gcc/arm-none-eabi/11.2.1/thumb/v7e-m+fp/hard/crt0.o
 .text          0x00000000        0x0 build/main.o
 .data          0x00000000        0x0 build/main.o
 .bss           0x00000000        0x0 build/main.o
 .text          0x00000000        0x0 build/gpio.o
 .data          0x00000000        0x0 build/gpio.o
 .bss           0x00000000        0x0 build/gpio.o
 .text          0x00000000        0x0 build/stm32f4xx_it.o
 .data          0x00000000        0x0 build/stm32f4xx_it.o
 .bss           0x00000000        0x0 build/stm32f4xx_it.o
 .text          0x00000000        0x0 build/stm32f4xx_hal_msp.o
 .data          0x00000000        0x0 build/stm32f4xx_hal_msp.o
 .bss           0x00000000        0x0 build/stm32f4xx_hal_msp.o
 .text          0x00000000        0x0 build/stm32f4xx_hal_tim.o
 .data          0x00000000        0x0 build/stm32f4xx_hal_tim.o
 .bss           0x00000000        0x0 build/stm32f4xx_hal_tim.o
 .text.TIM_TI1_ConfigInputStage
                0x00000000       0x26 build/stm32f4xx_hal_tim.o
 .text.TIM_TI2_SetConfig
                0x00000000       0x36 build/stm32f4xx_hal_tim.o
 .text.TIM_TI2_ConfigInputStage
                0x00000000       0x28 build/stm32f4xx_hal_tim.o
 .text.TIM_TI3_SetConfig
                0x00000000       0x36 build/stm32f4xx_hal_tim.o
 .text.TIM_TI4_SetConfig
                0x00000000       0x36 build/stm32f4xx_hal_tim.o
 .text.TIM_ITRx_SetConfig
                0x00000000       0x10 build/stm32f4xx_hal_tim.o
 .text.HAL_TIM_Base_MspInit
                0x00000000        0x2 build/stm32f4xx_hal_tim.o
 .text.HAL_TIM_Base_MspDeInit
                0x00000000        0x2 build/stm32f4xx_hal_tim.o
 .text.HAL_TIM_Base_DeInit
                0x00000000       0x5e build/stm32f4xx_hal_tim.o
 .text.HAL_TIM_Base_Start
                0x00000000       0x7c build/stm32f4xx_hal_tim.o
 .text.HAL_TIM_Base_Stop
                0x00000000       0x28 build/stm32f4xx_hal_tim.o
 .text.HAL_TIM_Base_Start_IT
                0x00000000       0x88 build/stm32f4xx_hal_tim.o
 .text.HAL_TIM_Base_Stop_IT
                0x00000000       0x32 build/stm32f4xx_hal_tim.o
 .text.HAL_TIM_Base_Start_DMA
                0x00000000       0xd4 build/stm32f4xx_hal_tim.o
 .text.HAL_TIM_Base_Stop_DMA
                0x00000000       0x3c build/stm32f4xx_hal_tim.o
 .text.HAL_TIM_OC_MspInit
                0x00000000        0x2 build/stm32f4xx_hal_tim.o
 .text.HAL_TIM_OC_MspDeInit
                0x00000000        0x2 build/stm32f4xx_hal_tim.o
 .text.HAL_TIM_OC_DeInit
                0x00000000       0x5e build/stm32f4xx_hal_tim.o
 .text.HAL_TIM_PWM_MspInit
                0x00000000        0x2 build/stm32f4xx_hal_tim.o
 .text.HAL_TIM_PWM_MspDeInit
                0x00000000        0x2 build/stm32f4xx_hal_tim.o
 .text.HAL_TIM_PWM_DeInit
                0x00000000       0x5e build/stm32f4xx_hal_tim.o
 .text.HAL_TIM_IC_MspInit
                0x00000000        0x2 build/stm32f4xx_hal_tim.o
 .text.HAL_TIM_IC_MspDeInit
                0x00000000        0x2 build/stm32f4xx_hal_tim.o
 .text.HAL_TIM_IC_DeInit
                0x00000000       0x5e build/stm32f4xx_hal_tim.o
 .text.HAL_TIM_OnePulse_MspInit
                0x00000000        0x2 build/stm32f4xx_hal_tim.o
 .text.HAL_TIM_OnePulse_MspDeInit
                0x00000000        0x2 build/stm32f4xx_hal_tim.o
 .text.HAL_TIM_OnePulse_DeInit
                0x00000000       0x4e build/stm32f4xx_hal_tim.o
 .text.HAL_TIM_Encoder_MspInit
                0x00000000        0x2 build/stm32f4xx_hal_tim.o
 .text.HAL_TIM_Encoder_MspDeInit
                0x00000000        0x2 build/stm32f4xx_hal_tim.o
 .text.HAL_TIM_Encoder_DeInit
                0x00000000       0x4e build/stm32f4xx_hal_tim.o
 .text.HAL_TIM_DMABurst_MultiWriteStart
                0x00000000      0x1a8 build/stm32f4xx_hal_tim.o
 .text.HAL_TIM_DMABurst_WriteStart
                0x00000000       0x16 build/stm32f4xx_hal_tim.o
 .text.HAL_TIM_DMABurst_WriteStop
                0x00000000       0x84 build/stm32f4xx_hal_tim.o
 .text.HAL_TIM_DMABurst_MultiReadStart
                0x00000000      0x1a8 build/stm32f4xx_hal_tim.o
 .text.HAL_TIM_DMABurst_ReadStart
                0x00000000       0x16 build/stm32f4xx_hal_tim.o
 .text.HAL_TIM_DMABurst_ReadStop
                0x00000000       0x84 build/stm32f4xx_hal_tim.o
 .text.HAL_TIM_GenerateEvent
                0x00000000       0x2a build/stm32f4xx_hal_tim.o
 .text.HAL_TIM_ConfigTI1Input
                0x00000000       0x10 build/stm32f4xx_hal_tim.o
 .text.HAL_TIM_ReadCapturedValue
                0x00000000       0x32 build/stm32f4xx_hal_tim.o
 .text.HAL_TIM_PeriodElapsedCallback
                0x00000000        0x2 build/stm32f4xx_hal_tim.o
 .text.TIM_DMAPeriodElapsedCplt
                0x00000000       0x16 build/stm32f4xx_hal_tim.o
 .text.HAL_TIM_PeriodElapsedHalfCpltCallback
                0x00000000        0x2 build/stm32f4xx_hal_tim.o
 .text.TIM_DMAPeriodElapsedHalfCplt
                0x00000000        0xa build/stm32f4xx_hal_tim.o
 .text.HAL_TIM_OC_DelayElapsedCallback
                0x00000000        0x2 build/stm32f4xx_hal_tim.o
 .text.HAL_TIM_IC_CaptureCallback
                0x00000000        0x2 build/stm32f4xx_hal_tim.o
 .text.TIM_DMACaptureCplt
                0x00000000       0x80 build/stm32f4xx_hal_tim.o
 .text.HAL_TIM_IC_CaptureHalfCpltCallback
                0x00000000        0x2 build/stm32f4xx_hal_tim.o
 .text.TIM_DMACaptureHalfCplt
                0x00000000       0x3e build/stm32f4xx_hal_tim.o
 .text.HAL_TIM_PWM_PulseFinishedCallback
                0x00000000        0x2 build/stm32f4xx_hal_tim.o
 .text.TIM_DMADelayPulseCplt
                0x00000000       0x70 build/stm32f4xx_hal_tim.o
 .text.HAL_TIM_PWM_PulseFinishedHalfCpltCallback
                0x00000000        0x2 build/stm32f4xx_hal_tim.o
 .text.TIM_DMADelayPulseHalfCplt
                0x00000000       0x3e build/stm32f4xx_hal_tim.o
 .text.HAL_TIM_TriggerCallback
                0x00000000        0x2 build/stm32f4xx_hal_tim.o
 .text.HAL_TIM_IRQHandler
                0x00000000      0x17a build/stm32f4xx_hal_tim.o
 .text.TIM_DMATriggerCplt
                0x00000000       0x16 build/stm32f4xx_hal_tim.o
 .text.HAL_TIM_TriggerHalfCpltCallback
                0x00000000        0x2 build/stm32f4xx_hal_tim.o
 .text.TIM_DMATriggerHalfCplt
                0x00000000        0xa build/stm32f4xx_hal_tim.o
 .text.HAL_TIM_ErrorCallback
                0x00000000        0x2 build/stm32f4xx_hal_tim.o
 .text.TIM_DMAError
                0x00000000       0x5c build/stm32f4xx_hal_tim.o
 .text.HAL_TIM_Base_GetState
                0x00000000        0x6 build/stm32f4xx_hal_tim.o
 .text.HAL_TIM_OC_GetState
                0x00000000        0x6 build/stm32f4xx_hal_tim.o
 .text.HAL_TIM_PWM_GetState
                0x00000000        0x6 build/stm32f4xx_hal_tim.o
 .text.HAL_TIM_IC_GetState
                0x00000000        0x6 build/stm32f4xx_hal_tim.o
 .text.HAL_TIM_OnePulse_GetState
                0x00000000        0x6 build/stm32f4xx_hal_tim.o
 .text.HAL_TIM_Encoder_GetState
                0x00000000        0x6 build/stm32f4xx_hal_tim.o
 .text.HAL_TIM_GetActiveChannel
                0x00000000        0x4 build/stm32f4xx_hal_tim.o
 .text.HAL_TIM_GetChannelState
                0x00000000       0x2a build/stm32f4xx_hal_tim.o
 .text.HAL_TIM_DMABurstState
                0x00000000        0x6 build/stm32f4xx_hal_tim.o
 .text.HAL_TIM_Base_Init
                0x00000000       0x58 build/stm32f4xx_hal_tim.o
 .text.HAL_TIM_OC_Init
                0x00000000       0x58 build/stm32f4xx_hal_tim.o
 .text.HAL_TIM_IC_Init
                0x00000000       0x58 build/stm32f4xx_hal_tim.o
 .text.HAL_TIM_OnePulse_Init
                0x00000000       0x5c build/stm32f4xx_hal_tim.o
 .text.HAL_TIM_OC_ConfigChannel
                0x00000000       0x5e build/stm32f4xx_hal_tim.o
 .text.TIM_TI1_SetConfig
                0x00000000       0x7c build/stm32f4xx_hal_tim.o
 .text.HAL_TIM_IC_ConfigChannel
                0x00000000       0xc4 build/stm32f4xx_hal_tim.o
 .text.HAL_TIM_OnePulse_ConfigChannel
                0x00000000       0xfa build/stm32f4xx_hal_tim.o
 .text.TIM_ETR_SetConfig
                0x00000000       0x1a build/stm32f4xx_hal_tim.o
 .text.HAL_TIM_ConfigOCrefClear
                0x00000000       0xfa build/stm32f4xx_hal_tim.o
 .text.HAL_TIM_ConfigClockSource
                0x00000000       0xfe build/stm32f4xx_hal_tim.o
 .text.TIM_SlaveTimer_SetConfig
                0x00000000       0xb8 build/stm32f4xx_hal_tim.o
 .text.HAL_TIM_SlaveConfigSynchro
                0x00000000       0x52 build/stm32f4xx_hal_tim.o
 .text.HAL_TIM_SlaveConfigSynchro_IT
                0x00000000       0x52 build/stm32f4xx_hal_tim.o
 .text.HAL_TIM_OC_Start
                0x00000000      0x104 build/stm32f4xx_hal_tim.o
 .text.HAL_TIM_OC_Stop
                0x00000000       0x8c build/stm32f4xx_hal_tim.o
 .text.HAL_TIM_OC_Start_IT
                0x00000000      0x14c build/stm32f4xx_hal_tim.o
 .text.HAL_TIM_OC_Stop_IT
                0x00000000       0xdc build/stm32f4xx_hal_tim.o
 .text.HAL_TIM_OC_Start_DMA
                0x00000000      0x26c build/stm32f4xx_hal_tim.o
 .text.HAL_TIM_OC_Stop_DMA
                0x00000000       0xf4 build/stm32f4xx_hal_tim.o
 .text.HAL_TIM_PWM_Stop
                0x00000000       0x8c build/stm32f4xx_hal_tim.o
 .text.HAL_TIM_PWM_Start_IT
                0x00000000      0x14c build/stm32f4xx_hal_tim.o
 .text.HAL_TIM_PWM_Stop_IT
                0x00000000       0xdc build/stm32f4xx_hal_tim.o
 .text.HAL_TIM_PWM_Start_DMA
                0x00000000      0x26c build/stm32f4xx_hal_tim.o
 .text.HAL_TIM_PWM_Stop_DMA
                0x00000000       0xf4 build/stm32f4xx_hal_tim.o
 .text.HAL_TIM_IC_Start
                0x00000000      0x130 build/stm32f4xx_hal_tim.o
 .text.HAL_TIM_IC_Stop
                0x00000000       0x80 build/stm32f4xx_hal_tim.o
 .text.HAL_TIM_IC_Start_IT
                0x00000000      0x174 build/stm32f4xx_hal_tim.o
 .text.HAL_TIM_IC_Stop_IT
                0x00000000       0xd0 build/stm32f4xx_hal_tim.o
 .text.HAL_TIM_IC_Start_DMA
                0x00000000      0x258 build/stm32f4xx_hal_tim.o
 .text.HAL_TIM_IC_Stop_DMA
                0x00000000       0xe6 build/stm32f4xx_hal_tim.o
 .text.HAL_TIM_OnePulse_Start
                0x00000000       0x80 build/stm32f4xx_hal_tim.o
 .text.HAL_TIM_OnePulse_Stop
                0x00000000       0x80 build/stm32f4xx_hal_tim.o
 .text.HAL_TIM_OnePulse_Start_IT
                0x00000000       0x98 build/stm32f4xx_hal_tim.o
 .text.HAL_TIM_OnePulse_Stop_IT
                0x00000000       0x94 build/stm32f4xx_hal_tim.o
 .text.HAL_TIM_Encoder_Stop
                0x00000000       0xc4 build/stm32f4xx_hal_tim.o
 .text.HAL_TIM_Encoder_Start_IT
                0x00000000       0xf6 build/stm32f4xx_hal_tim.o
 .text.HAL_TIM_Encoder_Stop_IT
                0x00000000       0xee build/stm32f4xx_hal_tim.o
 .text.HAL_TIM_Encoder_Start_DMA
                0x00000000      0x23c build/stm32f4xx_hal_tim.o
 .text.HAL_TIM_Encoder_Stop_DMA
                0x00000000      0x106 build/stm32f4xx_hal_tim.o
 .text          0x00000000        0x0 build/stm32f4xx_hal_tim_ex.o
 .data          0x00000000        0x0 build/stm32f4xx_hal_tim_ex.o
 .bss           0x00000000        0x0 build/stm32f4xx_hal_tim_ex.o
 .text.TIM_CCxNChannelCmd
                0x00000000       0x1e build/stm32f4xx_hal_tim_ex.o
 .text.TIM_DMAErrorCCxN
                0x00000000       0x44 build/stm32f4xx_hal_tim_ex.o
 .text.TIM_DMADelayPulseNCplt
                0x00000000       0x70 build/stm32f4xx_hal_tim_ex.o
 .text.HAL_TIMEx_HallSensor_MspInit
                0x00000000        0x2 build/stm32f4xx_hal_tim_ex.o
 .text.HAL_TIMEx_HallSensor_Init
                0x00000000       0xd4 build/stm32f4xx_hal_tim_ex.o
 .text.HAL_TIMEx_HallSensor_MspDeInit
                0x00000000        0x2 build/stm32f4xx_hal_tim_ex.o
 .text.HAL_TIMEx_HallSensor_DeInit
                0x00000000       0x4e build/stm32f4xx_hal_tim_ex.o
 .text.HAL_TIMEx_HallSensor_Start
                0x00000000       0xbc build/stm32f4xx_hal_tim_ex.o
 .text.HAL_TIMEx_HallSensor_Stop
                0x00000000       0x42 build/stm32f4xx_hal_tim_ex.o
 .text.HAL_TIMEx_HallSensor_Start_IT
                0x00000000       0xc8 build/stm32f4xx_hal_tim_ex.o
 .text.HAL_TIMEx_HallSensor_Stop_IT
                0x00000000       0x4c build/stm32f4xx_hal_tim_ex.o
 .text.HAL_TIMEx_HallSensor_Start_DMA
                0x00000000       0xf0 build/stm32f4xx_hal_tim_ex.o
 .text.HAL_TIMEx_HallSensor_Stop_DMA
                0x00000000       0x4a build/stm32f4xx_hal_tim_ex.o
 .text.HAL_TIMEx_OCN_Start
                0x00000000       0xf8 build/stm32f4xx_hal_tim_ex.o
 .text.HAL_TIMEx_OCN_Stop
                0x00000000       0x76 build/stm32f4xx_hal_tim_ex.o
 .text.HAL_TIMEx_OCN_Start_IT
                0x00000000      0x130 build/stm32f4xx_hal_tim_ex.o
 .text.HAL_TIMEx_OCN_Stop_IT
                0x00000000       0xc2 build/stm32f4xx_hal_tim_ex.o
 .text.HAL_TIMEx_OCN_Start_DMA
                0x00000000      0x214 build/stm32f4xx_hal_tim_ex.o
 .text.HAL_TIMEx_OCN_Stop_DMA
                0x00000000       0xc0 build/stm32f4xx_hal_tim_ex.o
 .text.HAL_TIMEx_PWMN_Start
                0x00000000       0xf8 build/stm32f4xx_hal_tim_ex.o
 .text.HAL_TIMEx_PWMN_Stop
                0x00000000       0x76 build/stm32f4xx_hal_tim_ex.o
 .text.HAL_TIMEx_PWMN_Start_IT
                0x00000000      0x130 build/stm32f4xx_hal_tim_ex.o
 .text.HAL_TIMEx_PWMN_Stop_IT
                0x00000000       0xc2 build/stm32f4xx_hal_tim_ex.o
 .text.HAL_TIMEx_PWMN_Start_DMA
                0x00000000      0x214 build/stm32f4xx_hal_tim_ex.o
 .text.HAL_TIMEx_PWMN_Stop_DMA
                0x00000000       0xc0 build/stm32f4xx_hal_tim_ex.o
 .text.HAL_TIMEx_OnePulseN_Start
                0x00000000       0x7a build/stm32f4xx_hal_tim_ex.o
 .text.HAL_TIMEx_OnePulseN_Stop
                0x00000000       0x72 build/stm32f4xx_hal_tim_ex.o
 .text.HAL_TIMEx_OnePulseN_Start_IT
                0x00000000       0x8e build/stm32f4xx_hal_tim_ex.o
 .text.HAL_TIMEx_OnePulseN_Stop_IT
                0x00000000       0x86 build/stm32f4xx_hal_tim_ex.o
 .text.HAL_TIMEx_ConfigCommutEvent
                0x00000000       0x72 build/stm32f4xx_hal_tim_ex.o
 .text.HAL_TIMEx_ConfigCommutEvent_IT
                0x00000000       0x72 build/stm32f4xx_hal_tim_ex.o
 .text.HAL_TIMEx_ConfigCommutEvent_DMA
                0x00000000       0x90 build/stm32f4xx_hal_tim_ex.o
 .text.HAL_TIMEx_ConfigBreakDeadTime
                0x00000000       0x52 build/stm32f4xx_hal_tim_ex.o
 .text.HAL_TIMEx_RemapConfig
                0x00000000       0x20 build/stm32f4xx_hal_tim_ex.o
 .text.HAL_TIMEx_CommutCallback
                0x00000000        0x2 build/stm32f4xx_hal_tim_ex.o
 .text.TIMEx_DMACommutationCplt
                0x00000000       0x10 build/stm32f4xx_hal_tim_ex.o
 .text.HAL_TIMEx_CommutHalfCpltCallback
                0x00000000        0x2 build/stm32f4xx_hal_tim_ex.o
 .text.TIMEx_DMACommutationHalfCplt
                0x00000000       0x10 build/stm32f4xx_hal_tim_ex.o
 .text.HAL_TIMEx_BreakCallback
                0x00000000        0x2 build/stm32f4xx_hal_tim_ex.o
 .text.HAL_TIMEx_HallSensor_GetState
                0x00000000        0x6 build/stm32f4xx_hal_tim_ex.o
 .text.HAL_TIMEx_GetChannelNState
                0x00000000       0x2a build/stm32f4xx_hal_tim_ex.o
 .text          0x00000000        0x0 build/stm32f4xx_hal_rcc.o
 .data          0x00000000        0x0 build/stm32f4xx_hal_rcc.o
 .bss           0x00000000        0x0 build/stm32f4xx_hal_rcc.o
 .text.HAL_RCC_DeInit
                0x00000000        0x4 build/stm32f4xx_hal_rcc.o
 .text.HAL_RCC_MCOConfig
                0x00000000       0x9c build/stm32f4xx_hal_rcc.o
 .text.HAL_RCC_EnableCSS
                0x00000000        0xc build/stm32f4xx_hal_rcc.o
 .text.HAL_RCC_DisableCSS
                0x00000000        0xc build/stm32f4xx_hal_rcc.o
 .text.HAL_RCC_GetOscConfig
                0x00000000       0xcc build/stm32f4xx_hal_rcc.o
 .text.HAL_RCC_GetClockConfig
                0x00000000       0x3c build/stm32f4xx_hal_rcc.o
 .text.HAL_RCC_CSSCallback
                0x00000000        0x2 build/stm32f4xx_hal_rcc.o
 .text.HAL_RCC_NMI_IRQHandler
                0x00000000       0x20 build/stm32f4xx_hal_rcc.o
 .text          0x00000000        0x0 build/stm32f4xx_hal_rcc_ex.o
 .data          0x00000000        0x0 build/stm32f4xx_hal_rcc_ex.o
 .bss           0x00000000        0x0 build/stm32f4xx_hal_rcc_ex.o
 .text.HAL_RCCEx_PeriphCLKConfig
                0x00000000      0x154 build/stm32f4xx_hal_rcc_ex.o
 .text.HAL_RCCEx_GetPeriphCLKConfig
                0x00000000       0x30 build/stm32f4xx_hal_rcc_ex.o
 .text.HAL_RCCEx_GetPeriphCLKFreq
                0x00000000       0x74 build/stm32f4xx_hal_rcc_ex.o
 .text.HAL_RCCEx_EnablePLLI2S
                0x00000000       0x68 build/stm32f4xx_hal_rcc_ex.o
 .text.HAL_RCCEx_DisablePLLI2S
                0x00000000       0x34 build/stm32f4xx_hal_rcc_ex.o
 .text.HAL_RCC_DeInit
                0x00000000      0x13c build/stm32f4xx_hal_rcc_ex.o
 .debug_info    0x00000000      0x700 build/stm32f4xx_hal_rcc_ex.o
 .debug_abbrev  0x00000000      0x1dc build/stm32f4xx_hal_rcc_ex.o
 .debug_loc     0x00000000      0x456 build/stm32f4xx_hal_rcc_ex.o
 .debug_aranges
                0x00000000       0x48 build/stm32f4xx_hal_rcc_ex.o
 .debug_ranges  0x00000000       0x38 build/stm32f4xx_hal_rcc_ex.o
 .debug_line    0x00000000      0x59d build/stm32f4xx_hal_rcc_ex.o
 .debug_str     0x00000000      0x492 build/stm32f4xx_hal_rcc_ex.o
 .comment       0x00000000       0x58 build/stm32f4xx_hal_rcc_ex.o
 .debug_frame   0x00000000       0xa4 build/stm32f4xx_hal_rcc_ex.o
 .ARM.attributes
                0x00000000       0x34 build/stm32f4xx_hal_rcc_ex.o
 .text          0x00000000        0x0 build/stm32f4xx_hal_flash.o
 .data          0x00000000        0x0 build/stm32f4xx_hal_flash.o
 .bss           0x00000000        0x0 build/stm32f4xx_hal_flash.o
 .text.FLASH_Program_DoubleWord
                0x00000000       0x30 build/stm32f4xx_hal_flash.o
 .text.FLASH_Program_Word
                0x00000000       0x24 build/stm32f4xx_hal_flash.o
 .text.FLASH_Program_HalfWord
                0x00000000       0x24 build/stm32f4xx_hal_flash.o
 .text.FLASH_Program_Byte
                0x00000000       0x20 build/stm32f4xx_hal_flash.o
 .text.FLASH_SetErrorCode
                0x00000000       0x8c build/stm32f4xx_hal_flash.o
 .text.HAL_FLASH_Program_IT
                0x00000000       0x68 build/stm32f4xx_hal_flash.o
 .text.HAL_FLASH_EndOfOperationCallback
                0x00000000        0x2 build/stm32f4xx_hal_flash.o
 .text.HAL_FLASH_OperationErrorCallback
                0x00000000        0x2 build/stm32f4xx_hal_flash.o
 .text.HAL_FLASH_IRQHandler
                0x00000000       0xf4 build/stm32f4xx_hal_flash.o
 .text.HAL_FLASH_Unlock
                0x00000000       0x30 build/stm32f4xx_hal_flash.o
 .text.HAL_FLASH_Lock
                0x00000000       0x14 build/stm32f4xx_hal_flash.o
 .text.HAL_FLASH_OB_Unlock
                0x00000000       0x28 build/stm32f4xx_hal_flash.o
 .text.HAL_FLASH_OB_Lock
                0x00000000       0x14 build/stm32f4xx_hal_flash.o
 .text.HAL_FLASH_GetError
                0x00000000        0xc build/stm32f4xx_hal_flash.o
 .text.FLASH_WaitForLastOperation
                0x00000000       0x60 build/stm32f4xx_hal_flash.o
 .text.HAL_FLASH_Program
                0x00000000       0x7c build/stm32f4xx_hal_flash.o
 .text.HAL_FLASH_OB_Launch
                0x00000000       0x1c build/stm32f4xx_hal_flash.o
 .bss.pFlash    0x00000000       0x20 build/stm32f4xx_hal_flash.o
 .debug_info    0x00000000      0x7d3 build/stm32f4xx_hal_flash.o
 .debug_abbrev  0x00000000      0x2e0 build/stm32f4xx_hal_flash.o
 .debug_loc     0x00000000      0x498 build/stm32f4xx_hal_flash.o
 .debug_aranges
                0x00000000       0xa0 build/stm32f4xx_hal_flash.o
 .debug_ranges  0x00000000       0x90 build/stm32f4xx_hal_flash.o
 .debug_line    0x00000000      0x712 build/stm32f4xx_hal_flash.o
 .debug_str     0x00000000      0x515 build/stm32f4xx_hal_flash.o
 .comment       0x00000000       0x58 build/stm32f4xx_hal_flash.o
 .debug_frame   0x00000000      0x168 build/stm32f4xx_hal_flash.o
 .ARM.attributes
                0x00000000       0x34 build/stm32f4xx_hal_flash.o
 .text          0x00000000        0x0 build/stm32f4xx_hal_flash_ex.o
 .data          0x00000000        0x0 build/stm32f4xx_hal_flash_ex.o
 .bss           0x00000000        0x0 build/stm32f4xx_hal_flash_ex.o
 .text.FLASH_MassErase
                0x00000000       0x24 build/stm32f4xx_hal_flash_ex.o
 .text.FLASH_OB_BOR_LevelConfig
                0x00000000       0x18 build/stm32f4xx_hal_flash_ex.o
 .text.FLASH_OB_GetUser
                0x00000000       0x10 build/stm32f4xx_hal_flash_ex.o
 .text.FLASH_OB_GetWRP
                0x00000000        0xc build/stm32f4xx_hal_flash_ex.o
 .text.FLASH_OB_GetRDP
                0x00000000       0x1c build/stm32f4xx_hal_flash_ex.o
 .text.FLASH_OB_GetBOR
                0x00000000       0x10 build/stm32f4xx_hal_flash_ex.o
 .text.FLASH_OB_EnableWRP
                0x00000000       0x20 build/stm32f4xx_hal_flash_ex.o
 .text.FLASH_OB_DisableWRP
                0x00000000       0x20 build/stm32f4xx_hal_flash_ex.o
 .text.FLASH_OB_RDP_LevelConfig
                0x00000000       0x18 build/stm32f4xx_hal_flash_ex.o
 .text.FLASH_OB_UserConfig
                0x00000000       0x2c build/stm32f4xx_hal_flash_ex.o
 .text.HAL_FLASHEx_OBProgram
                0x00000000       0x84 build/stm32f4xx_hal_flash_ex.o
 .text.HAL_FLASHEx_OBGetConfig
                0x00000000       0x22 build/stm32f4xx_hal_flash_ex.o
 .text.FLASH_Erase_Sector
                0x00000000       0x4c build/stm32f4xx_hal_flash_ex.o
 .text.HAL_FLASHEx_Erase_IT
                0x00000000       0x6c build/stm32f4xx_hal_flash_ex.o
 .text.FLASH_FlushCaches
                0x00000000       0x60 build/stm32f4xx_hal_flash_ex.o
 .text.HAL_FLASHEx_Erase
                0x00000000       0x94 build/stm32f4xx_hal_flash_ex.o
 .debug_info    0x00000000      0x8cf build/stm32f4xx_hal_flash_ex.o
 .debug_abbrev  0x00000000      0x29c build/stm32f4xx_hal_flash_ex.o
 .debug_loc     0x00000000      0x693 build/stm32f4xx_hal_flash_ex.o
 .debug_aranges
                0x00000000       0x98 build/stm32f4xx_hal_flash_ex.o
 .debug_ranges  0x00000000       0x88 build/stm32f4xx_hal_flash_ex.o
 .debug_line    0x00000000      0x67b build/stm32f4xx_hal_flash_ex.o
 .debug_str     0x00000000      0x565 build/stm32f4xx_hal_flash_ex.o
 .comment       0x00000000       0x58 build/stm32f4xx_hal_flash_ex.o
 .debug_frame   0x00000000      0x164 build/stm32f4xx_hal_flash_ex.o
 .ARM.attributes
                0x00000000       0x34 build/stm32f4xx_hal_flash_ex.o
 .text          0x00000000        0x0 build/stm32f4xx_hal_flash_ramfunc.o
 .data          0x00000000        0x0 build/stm32f4xx_hal_flash_ramfunc.o
 .bss           0x00000000        0x0 build/stm32f4xx_hal_flash_ramfunc.o
 .debug_info    0x00000000       0x6b build/stm32f4xx_hal_flash_ramfunc.o
 .debug_abbrev  0x00000000       0x26 build/stm32f4xx_hal_flash_ramfunc.o
 .debug_aranges
                0x00000000       0x18 build/stm32f4xx_hal_flash_ramfunc.o
 .debug_line    0x00000000       0x1d build/stm32f4xx_hal_flash_ramfunc.o
 .debug_str     0x00000000      0x185 build/stm32f4xx_hal_flash_ramfunc.o
 .comment       0x00000000       0x58 build/stm32f4xx_hal_flash_ramfunc.o
 .ARM.attributes
                0x00000000       0x34 build/stm32f4xx_hal_flash_ramfunc.o
 .text          0x00000000        0x0 build/stm32f4xx_hal_gpio.o
 .data          0x00000000        0x0 build/stm32f4xx_hal_gpio.o
 .bss           0x00000000        0x0 build/stm32f4xx_hal_gpio.o
 .text.HAL_GPIO_DeInit
                0x00000000      0x134 build/stm32f4xx_hal_gpio.o
 .text.HAL_GPIO_ReadPin
                0x00000000        0xe build/stm32f4xx_hal_gpio.o
 .text.HAL_GPIO_LockPin
                0x00000000       0x2e build/stm32f4xx_hal_gpio.o
 .text.HAL_GPIO_EXTI_Callback
                0x00000000        0x2 build/stm32f4xx_hal_gpio.o
 .text.HAL_GPIO_EXTI_IRQHandler
                0x00000000       0x1c build/stm32f4xx_hal_gpio.o
 .text          0x00000000        0x0 build/stm32f4xx_hal_dma_ex.o
 .data          0x00000000        0x0 build/stm32f4xx_hal_dma_ex.o
 .bss           0x00000000        0x0 build/stm32f4xx_hal_dma_ex.o
 .text.DMA_MultiBufferSetConfig
                0x00000000       0x24 build/stm32f4xx_hal_dma_ex.o
 .text.HAL_DMAEx_MultiBufferStart
                0x00000000       0x5e build/stm32f4xx_hal_dma_ex.o
 .text.HAL_DMAEx_MultiBufferStart_IT
                0x00000000      0xf00 build/stm32f4xx_hal_dma_ex.o
 .text.HAL_DMAEx_ChangeMemory
                0x00000000       0x10 build/stm32f4xx_hal_dma_ex.o
 .debug_info    0x00000000      0x60b build/stm32f4xx_hal_dma_ex.o
 .debug_abbrev  0x00000000      0x1d6 build/stm32f4xx_hal_dma_ex.o
 .debug_loc     0x00000000      0x49a build/stm32f4xx_hal_dma_ex.o
 .debug_aranges
                0x00000000       0x38 build/stm32f4xx_hal_dma_ex.o
 .debug_ranges  0x00000000       0x28 build/stm32f4xx_hal_dma_ex.o
 .debug_line    0x00000000      0x99c build/stm32f4xx_hal_dma_ex.o
 .debug_str     0x00000000      0x514 build/stm32f4xx_hal_dma_ex.o
 .comment       0x00000000       0x58 build/stm32f4xx_hal_dma_ex.o
 .debug_frame   0x00000000       0x74 build/stm32f4xx_hal_dma_ex.o
 .ARM.attributes
                0x00000000       0x34 build/stm32f4xx_hal_dma_ex.o
 .text          0x00000000        0x0 build/stm32f4xx_hal_dma.o
 .data          0x00000000        0x0 build/stm32f4xx_hal_dma.o
 .bss           0x00000000        0x0 build/stm32f4xx_hal_dma.o
 .text.DMA_SetConfig
                0x00000000       0x2c build/stm32f4xx_hal_dma.o
 .text.HAL_DMA_DeInit
                0x00000000       0x64 build/stm32f4xx_hal_dma.o
 .text.HAL_DMA_Start
                0x00000000       0x48 build/stm32f4xx_hal_dma.o
 .text.HAL_DMA_Start_IT
                0x00000000       0x6a build/stm32f4xx_hal_dma.o
 .text.HAL_DMA_Abort
                0x00000000       0x94 build/stm32f4xx_hal_dma.o
 .text.HAL_DMA_Abort_IT
                0x00000000       0x26 build/stm32f4xx_hal_dma.o
 .text.HAL_DMA_PollForTransfer
                0x00000000      0x128 build/stm32f4xx_hal_dma.o
 .text.HAL_DMA_RegisterCallback
                0x00000000       0x5a build/stm32f4xx_hal_dma.o
 .text.HAL_DMA_UnRegisterCallback
                0x00000000       0x6e build/stm32f4xx_hal_dma.o
 .text.HAL_DMA_GetState
                0x00000000        0x6 build/stm32f4xx_hal_dma.o
 .text.HAL_DMA_GetError
                0x00000000        0x4 build/stm32f4xx_hal_dma.o
 .text          0x00000000        0x0 build/stm32f4xx_hal_pwr.o
 .data          0x00000000        0x0 build/stm32f4xx_hal_pwr.o
 .bss           0x00000000        0x0 build/stm32f4xx_hal_pwr.o
 .text.HAL_PWR_DeInit
                0x00000000       0x18 build/stm32f4xx_hal_pwr.o
 .text.HAL_PWR_EnableBkUpAccess
                0x00000000       0x1c build/stm32f4xx_hal_pwr.o
 .text.HAL_PWR_DisableBkUpAccess
                0x00000000       0x1c build/stm32f4xx_hal_pwr.o
 .text.HAL_PWR_ConfigPVD
                0x00000000       0x84 build/stm32f4xx_hal_pwr.o
 .text.HAL_PWR_EnablePVD
                0x00000000        0xc build/stm32f4xx_hal_pwr.o
 .text.HAL_PWR_DisablePVD
                0x00000000        0xc build/stm32f4xx_hal_pwr.o
 .text.HAL_PWR_EnableWakeUpPin
                0x00000000       0x10 build/stm32f4xx_hal_pwr.o
 .text.HAL_PWR_DisableWakeUpPin
                0x00000000       0x10 build/stm32f4xx_hal_pwr.o
 .text.HAL_PWR_EnterSLEEPMode
                0x00000000       0x20 build/stm32f4xx_hal_pwr.o
 .text.HAL_PWR_EnterSTOPMode
                0x00000000       0x38 build/stm32f4xx_hal_pwr.o
 .text.HAL_PWR_EnterSTANDBYMode
                0x00000000       0x20 build/stm32f4xx_hal_pwr.o
 .text.HAL_PWR_PVDCallback
                0x00000000        0x2 build/stm32f4xx_hal_pwr.o
 .text.HAL_PWR_PVD_IRQHandler
                0x00000000       0x20 build/stm32f4xx_hal_pwr.o
 .text.HAL_PWR_EnableSleepOnExit
                0x00000000       0x10 build/stm32f4xx_hal_pwr.o
 .text.HAL_PWR_DisableSleepOnExit
                0x00000000       0x10 build/stm32f4xx_hal_pwr.o
 .text.HAL_PWR_EnableSEVOnPend
                0x00000000       0x10 build/stm32f4xx_hal_pwr.o
 .text.HAL_PWR_DisableSEVOnPend
                0x00000000       0x10 build/stm32f4xx_hal_pwr.o
 .debug_info    0x00000000      0x7f8 build/stm32f4xx_hal_pwr.o
 .debug_abbrev  0x00000000      0x19e build/stm32f4xx_hal_pwr.o
 .debug_loc     0x00000000       0x78 build/stm32f4xx_hal_pwr.o
 .debug_aranges
                0x00000000       0xa0 build/stm32f4xx_hal_pwr.o
 .debug_ranges  0x00000000       0x90 build/stm32f4xx_hal_pwr.o
 .debug_line    0x00000000      0x3b3 build/stm32f4xx_hal_pwr.o
 .debug_str     0x00000000      0x50c build/stm32f4xx_hal_pwr.o
 .comment       0x00000000       0x58 build/stm32f4xx_hal_pwr.o
 .debug_frame   0x00000000      0x138 build/stm32f4xx_hal_pwr.o
 .ARM.attributes
                0x00000000       0x34 build/stm32f4xx_hal_pwr.o
 .text          0x00000000        0x0 build/stm32f4xx_hal_pwr_ex.o
 .data          0x00000000        0x0 build/stm32f4xx_hal_pwr_ex.o
 .bss           0x00000000        0x0 build/stm32f4xx_hal_pwr_ex.o
 .text.HAL_PWREx_EnableBkUpReg
                0x00000000       0x38 build/stm32f4xx_hal_pwr_ex.o
 .text.HAL_PWREx_DisableBkUpReg
                0x00000000       0x38 build/stm32f4xx_hal_pwr_ex.o
 .text.HAL_PWREx_EnableFlashPowerDown
                0x00000000        0xc build/stm32f4xx_hal_pwr_ex.o
 .text.HAL_PWREx_DisableFlashPowerDown
                0x00000000        0xc build/stm32f4xx_hal_pwr_ex.o
 .text.HAL_PWREx_GetVoltageRange
                0x00000000       0x10 build/stm32f4xx_hal_pwr_ex.o
 .text.HAL_PWREx_ControlVoltageScaling
                0x00000000       0x64 build/stm32f4xx_hal_pwr_ex.o
 .debug_info    0x00000000      0x4ae build/stm32f4xx_hal_pwr_ex.o
 .debug_abbrev  0x00000000      0x18d build/stm32f4xx_hal_pwr_ex.o
 .debug_loc     0x00000000      0x12d build/stm32f4xx_hal_pwr_ex.o
 .debug_aranges
                0x00000000       0x48 build/stm32f4xx_hal_pwr_ex.o
 .debug_ranges  0x00000000       0x38 build/stm32f4xx_hal_pwr_ex.o
 .debug_line    0x00000000      0x29b build/stm32f4xx_hal_pwr_ex.o
 .debug_str     0x00000000      0x3bd build/stm32f4xx_hal_pwr_ex.o
 .comment       0x00000000       0x58 build/stm32f4xx_hal_pwr_ex.o
 .debug_frame   0x00000000       0x90 build/stm32f4xx_hal_pwr_ex.o
 .ARM.attributes
                0x00000000       0x34 build/stm32f4xx_hal_pwr_ex.o
 .text          0x00000000        0x0 build/stm32f4xx_hal_cortex.o
 .data          0x00000000        0x0 build/stm32f4xx_hal_cortex.o
 .bss           0x00000000        0x0 build/stm32f4xx_hal_cortex.o
 .text.HAL_NVIC_DisableIRQ
                0x00000000       0x24 build/stm32f4xx_hal_cortex.o
 .text.HAL_NVIC_SystemReset
                0x00000000       0x24 build/stm32f4xx_hal_cortex.o
 .text.HAL_MPU_Disable
                0x00000000       0x1c build/stm32f4xx_hal_cortex.o
 .text.HAL_MPU_Enable
                0x00000000       0x20 build/stm32f4xx_hal_cortex.o
 .text.HAL_MPU_ConfigRegion
                0x00000000       0x60 build/stm32f4xx_hal_cortex.o
 .text.HAL_NVIC_GetPriorityGrouping
                0x00000000       0x10 build/stm32f4xx_hal_cortex.o
 .text.HAL_NVIC_GetPriority
                0x00000000       0x60 build/stm32f4xx_hal_cortex.o
 .text.HAL_NVIC_SetPendingIRQ
                0x00000000       0x1c build/stm32f4xx_hal_cortex.o
 .text.HAL_NVIC_GetPendingIRQ
                0x00000000       0x24 build/stm32f4xx_hal_cortex.o
 .text.HAL_NVIC_ClearPendingIRQ
                0x00000000       0x1c build/stm32f4xx_hal_cortex.o
 .text.HAL_NVIC_GetActive
                0x00000000       0x24 build/stm32f4xx_hal_cortex.o
 .text.HAL_SYSTICK_CLKSourceConfig
                0x00000000       0x20 build/stm32f4xx_hal_cortex.o
 .text.HAL_SYSTICK_Callback
                0x00000000        0x2 build/stm32f4xx_hal_cortex.o
 .text.HAL_SYSTICK_IRQHandler
                0x00000000        0x8 build/stm32f4xx_hal_cortex.o
 .text          0x00000000        0x0 build/stm32f4xx_hal.o
 .data          0x00000000        0x0 build/stm32f4xx_hal.o
 .bss           0x00000000        0x0 build/stm32f4xx_hal.o
 .text.HAL_MspInit
                0x00000000        0x2 build/stm32f4xx_hal.o
 .text.HAL_MspDeInit
                0x00000000        0x2 build/stm32f4xx_hal.o
 .text.HAL_DeInit
                0x00000000       0x2c build/stm32f4xx_hal.o
 .text.HAL_GetTickPrio
                0x00000000        0xc build/stm32f4xx_hal.o
 .text.HAL_SetTickFreq
                0x00000000       0x2c build/stm32f4xx_hal.o
 .text.HAL_GetTickFreq
                0x00000000        0xc build/stm32f4xx_hal.o
 .text.HAL_Delay
                0x00000000       0x28 build/stm32f4xx_hal.o
 .text.HAL_SuspendTick
                0x00000000        0xe build/stm32f4xx_hal.o
 .text.HAL_ResumeTick
                0x00000000        0xe build/stm32f4xx_hal.o
 .text.HAL_GetHalVersion
                0x00000000        0x8 build/stm32f4xx_hal.o
 .text.HAL_GetREVID
                0x00000000        0xc build/stm32f4xx_hal.o
 .text.HAL_GetDEVID
                0x00000000       0x10 build/stm32f4xx_hal.o
 .text.HAL_DBGMCU_EnableDBGSleepMode
                0x00000000       0x10 build/stm32f4xx_hal.o
 .text.HAL_DBGMCU_DisableDBGSleepMode
                0x00000000       0x10 build/stm32f4xx_hal.o
 .text.HAL_DBGMCU_EnableDBGStopMode
                0x00000000       0x10 build/stm32f4xx_hal.o
 .text.HAL_DBGMCU_DisableDBGStopMode
                0x00000000       0x10 build/stm32f4xx_hal.o
 .text.HAL_DBGMCU_EnableDBGStandbyMode
                0x00000000       0x10 build/stm32f4xx_hal.o
 .text.HAL_DBGMCU_DisableDBGStandbyMode
                0x00000000       0x10 build/stm32f4xx_hal.o
 .text.HAL_EnableCompensationCell
                0x00000000       0x10 build/stm32f4xx_hal.o
 .text.HAL_DisableCompensationCell
                0x00000000       0x10 build/stm32f4xx_hal.o
 .text.HAL_GetUIDw0
                0x00000000        0xc build/stm32f4xx_hal.o
 .text.HAL_GetUIDw1
                0x00000000        0xc build/stm32f4xx_hal.o
 .text.HAL_GetUIDw2
                0x00000000        0xc build/stm32f4xx_hal.o
 .text          0x00000000        0x0 build/stm32f4xx_hal_exti.o
 .data          0x00000000        0x0 build/stm32f4xx_hal_exti.o
 .bss           0x00000000        0x0 build/stm32f4xx_hal_exti.o
 .text.HAL_EXTI_SetConfigLine
                0x00000000       0xd8 build/stm32f4xx_hal_exti.o
 .text.HAL_EXTI_GetConfigLine
                0x00000000       0xa8 build/stm32f4xx_hal_exti.o
 .text.HAL_EXTI_ClearConfigLine
                0x00000000       0x84 build/stm32f4xx_hal_exti.o
 .text.HAL_EXTI_RegisterCallback
                0x00000000        0xe build/stm32f4xx_hal_exti.o
 .text.HAL_EXTI_GetHandle
                0x00000000        0xc build/stm32f4xx_hal_exti.o
 .text.HAL_EXTI_IRQHandler
                0x00000000       0x24 build/stm32f4xx_hal_exti.o
 .text.HAL_EXTI_GetPending
                0x00000000       0x18 build/stm32f4xx_hal_exti.o
 .text.HAL_EXTI_ClearPending
                0x00000000       0x14 build/stm32f4xx_hal_exti.o
 .text.HAL_EXTI_GenerateSWI
                0x00000000       0x14 build/stm32f4xx_hal_exti.o
 .debug_info    0x00000000      0x612 build/stm32f4xx_hal_exti.o
 .debug_abbrev  0x00000000      0x200 build/stm32f4xx_hal_exti.o
 .debug_loc     0x00000000      0x4ee build/stm32f4xx_hal_exti.o
 .debug_aranges
                0x00000000       0x60 build/stm32f4xx_hal_exti.o
 .debug_ranges  0x00000000       0x50 build/stm32f4xx_hal_exti.o
 .debug_line    0x00000000      0x588 build/stm32f4xx_hal_exti.o
 .debug_str     0x00000000      0x3ac build/stm32f4xx_hal_exti.o
 .comment       0x00000000       0x58 build/stm32f4xx_hal_exti.o
 .debug_frame   0x00000000       0xd4 build/stm32f4xx_hal_exti.o
 .ARM.attributes
                0x00000000       0x34 build/stm32f4xx_hal_exti.o
 .text          0x00000000        0x0 build/system_stm32f4xx.o
 .data          0x00000000        0x0 build/system_stm32f4xx.o
 .bss           0x00000000        0x0 build/system_stm32f4xx.o
 .text.SystemCoreClockUpdate
                0x00000000       0xa0 build/system_stm32f4xx.o
 .text          0x00000000        0x0 build/dma.o
 .data          0x00000000        0x0 build/dma.o
 .bss           0x00000000        0x0 build/dma.o
 .text          0x00000000        0x0 build/tim.o
 .data          0x00000000        0x0 build/tim.o
 .bss           0x00000000        0x0 build/tim.o
 .text.HAL_TIM_Encoder_MspDeInit
                0x00000000       0x9c build/tim.o
 .text.HAL_TIM_PWM_MspDeInit
                0x00000000       0x20 build/tim.o
 .text          0x00000000        0x0 build/usart.o
 .data          0x00000000        0x0 build/usart.o
 .bss           0x00000000        0x0 build/usart.o
 .text.HAL_UART_MspDeInit
                0x00000000       0x8c build/usart.o
 .text          0x00000000        0x0 build/stm32f4xx_hal_uart.o
 .data          0x00000000        0x0 build/stm32f4xx_hal_uart.o
 .bss           0x00000000        0x0 build/stm32f4xx_hal_uart.o
 .text.UART_EndTxTransfer
                0x00000000       0x20 build/stm32f4xx_hal_uart.o
 .text.UART_EndRxTransfer
                0x00000000       0x5c build/stm32f4xx_hal_uart.o
 .text.UART_Transmit_IT
                0x00000000       0x60 build/stm32f4xx_hal_uart.o
 .text.HAL_UART_MspInit
                0x00000000        0x2 build/stm32f4xx_hal_uart.o
 .text.HAL_HalfDuplex_Init
                0x00000000       0x6a build/stm32f4xx_hal_uart.o
 .text.HAL_LIN_Init
                0x00000000       0x80 build/stm32f4xx_hal_uart.o
 .text.HAL_MultiProcessor_Init
                0x00000000       0x8a build/stm32f4xx_hal_uart.o
 .text.HAL_UART_MspDeInit
                0x00000000        0x2 build/stm32f4xx_hal_uart.o
 .text.HAL_UART_DeInit
                0x00000000       0x32 build/stm32f4xx_hal_uart.o
 .text.HAL_UART_Receive
                0x00000000       0xe4 build/stm32f4xx_hal_uart.o
 .text.HAL_UART_Transmit_IT
                0x00000000       0x4e build/stm32f4xx_hal_uart.o
 .text.HAL_UART_Transmit_DMA
                0x00000000       0x9c build/stm32f4xx_hal_uart.o
 .text.HAL_UART_DMAPause
                0x00000000       0xac build/stm32f4xx_hal_uart.o
 .text.HAL_UART_DMAResume
                0x00000000       0xb2 build/stm32f4xx_hal_uart.o
 .text.HAL_UART_DMAStop
                0x00000000       0x84 build/stm32f4xx_hal_uart.o
 .text.HAL_UARTEx_ReceiveToIdle
                0x00000000      0x138 build/stm32f4xx_hal_uart.o
 .text.HAL_UART_Abort
                0x00000000       0xf2 build/stm32f4xx_hal_uart.o
 .text.HAL_UART_AbortTransmit
                0x00000000       0x6c build/stm32f4xx_hal_uart.o
 .text.HAL_UART_AbortReceive
                0x00000000       0xa6 build/stm32f4xx_hal_uart.o
 .text.HAL_UART_TxCpltCallback
                0x00000000        0x2 build/stm32f4xx_hal_uart.o
 .text.UART_DMATransmitCplt
                0x00000000       0x4c build/stm32f4xx_hal_uart.o
 .text.UART_EndTransmit_IT
                0x00000000       0x1a build/stm32f4xx_hal_uart.o
 .text.HAL_UART_TxHalfCpltCallback
                0x00000000        0x2 build/stm32f4xx_hal_uart.o
 .text.UART_DMATxHalfCplt
                0x00000000        0xa build/stm32f4xx_hal_uart.o
 .text.HAL_UART_RxCpltCallback
                0x00000000        0x2 build/stm32f4xx_hal_uart.o
 .text.HAL_UART_RxHalfCpltCallback
                0x00000000        0x2 build/stm32f4xx_hal_uart.o
 .text.HAL_UART_ErrorCallback
                0x00000000        0x2 build/stm32f4xx_hal_uart.o
 .text.UART_DMAError
                0x00000000       0x58 build/stm32f4xx_hal_uart.o
 .text.UART_DMAAbortOnError
                0x00000000       0x10 build/stm32f4xx_hal_uart.o
 .text.HAL_UART_AbortCpltCallback
                0x00000000        0x2 build/stm32f4xx_hal_uart.o
 .text.HAL_UART_Abort_IT
                0x00000000      0x124 build/stm32f4xx_hal_uart.o
 .text.UART_DMARxAbortCallback
                0x00000000       0x2c build/stm32f4xx_hal_uart.o
 .text.UART_DMATxAbortCallback
                0x00000000       0x2c build/stm32f4xx_hal_uart.o
 .text.HAL_UART_AbortTransmitCpltCallback
                0x00000000        0x2 build/stm32f4xx_hal_uart.o
 .text.HAL_UART_AbortTransmit_IT
                0x00000000       0x80 build/stm32f4xx_hal_uart.o
 .text.UART_DMATxOnlyAbortCallback
                0x00000000       0x14 build/stm32f4xx_hal_uart.o
 .text.HAL_UART_AbortReceiveCpltCallback
                0x00000000        0x2 build/stm32f4xx_hal_uart.o
 .text.HAL_UART_AbortReceive_IT
                0x00000000       0xbc build/stm32f4xx_hal_uart.o
 .text.UART_DMARxOnlyAbortCallback
                0x00000000       0x16 build/stm32f4xx_hal_uart.o
 .text.HAL_UARTEx_RxEventCallback
                0x00000000        0x2 build/stm32f4xx_hal_uart.o
 .text.UART_Receive_IT
                0x00000000       0xe2 build/stm32f4xx_hal_uart.o
 .text.HAL_UART_IRQHandler
                0x00000000      0x280 build/stm32f4xx_hal_uart.o
 .text.UART_DMARxHalfCplt
                0x00000000       0x1a build/stm32f4xx_hal_uart.o
 .text.UART_DMAReceiveCplt
                0x00000000       0x96 build/stm32f4xx_hal_uart.o
 .text.HAL_LIN_SendBreak
                0x00000000       0x40 build/stm32f4xx_hal_uart.o
 .text.HAL_MultiProcessor_EnterMuteMode
                0x00000000       0x40 build/stm32f4xx_hal_uart.o
 .text.HAL_MultiProcessor_ExitMuteMode
                0x00000000       0x40 build/stm32f4xx_hal_uart.o
 .text.HAL_HalfDuplex_EnableTransmitter
                0x00000000       0x36 build/stm32f4xx_hal_uart.o
 .text.HAL_HalfDuplex_EnableReceiver
                0x00000000       0x36 build/stm32f4xx_hal_uart.o
 .text.HAL_UART_GetState
                0x00000000        0xc build/stm32f4xx_hal_uart.o
 .text.HAL_UART_GetError
                0x00000000        0x4 build/stm32f4xx_hal_uart.o
 .text.UART_Start_Receive_IT
                0x00000000       0x3a build/stm32f4xx_hal_uart.o
 .text.HAL_UART_Receive_IT
                0x00000000       0x38 build/stm32f4xx_hal_uart.o
 .text.HAL_UARTEx_ReceiveToIdle_IT
                0x00000000       0x70 build/stm32f4xx_hal_uart.o
 .text.UART_Start_Receive_DMA
                0x00000000       0xa8 build/stm32f4xx_hal_uart.o
 .text.HAL_UART_Receive_DMA
                0x00000000       0x38 build/stm32f4xx_hal_uart.o
 .text.HAL_UARTEx_ReceiveToIdle_DMA
                0x00000000       0x70 build/stm32f4xx_hal_uart.o
 .text          0x00000000        0x0 build/inverse_kinematics.o
 .data          0x00000000        0x0 build/inverse_kinematics.o
 .bss           0x00000000        0x0 build/inverse_kinematics.o
 .text.pos_idx_last
                0x00000000        0xc build/inverse_kinematics.o
 .text.self_position_init
                0x00000000       0x14 build/inverse_kinematics.o
 .text.self_position_update
                0x00000000       0x64 build/inverse_kinematics.o
 .text.calculate_vel
                0x00000000       0xe8 build/inverse_kinematics.o
 .text.car_kinematics
                0x00000000       0xf4 build/inverse_kinematics.o
 .text.car_inv_kinematics
                0x00000000      0x100 build/inverse_kinematics.o
 .bss.data_flag
                0x00000000        0x1 build/inverse_kinematics.o
 .bss.pos_idx   0x00000000        0x1 build/inverse_kinematics.o
 .bss.self_pos_time
                0x00000000       0xf0 build/inverse_kinematics.o
 .debug_info    0x00000000      0x4ef build/inverse_kinematics.o
 .debug_abbrev  0x00000000      0x189 build/inverse_kinematics.o
 .debug_loc     0x00000000      0x196 build/inverse_kinematics.o
 .debug_aranges
                0x00000000       0x48 build/inverse_kinematics.o
 .debug_ranges  0x00000000       0x38 build/inverse_kinematics.o
 .debug_line    0x00000000      0x309 build/inverse_kinematics.o
 .debug_str     0x00000000      0x2f0 build/inverse_kinematics.o
 .comment       0x00000000       0x58 build/inverse_kinematics.o
 .debug_frame   0x00000000       0xdc build/inverse_kinematics.o
 .ARM.attributes
                0x00000000       0x34 build/inverse_kinematics.o
 .text          0x00000000        0x0 build/pid.o
 .data          0x00000000        0x0 build/pid.o
 .bss           0x00000000        0x0 build/pid.o
 .text.membership
                0x00000000      0x1bc build/pid.o
 .text.fuzzy_rule
                0x00000000      0x150 build/pid.o
 .text.fuzzy_pid
                0x00000000      0x2da build/pid.o
 .rodata.d_rule
                0x00000000       0x62 build/pid.o
 .rodata.i_rule
                0x00000000       0x62 build/pid.o
 .rodata.p_rule
                0x00000000       0x62 build/pid.o
 .text          0x00000000        0x0 build/zigbee_edc24.o
 .data          0x00000000        0x0 build/zigbee_edc24.o
 .bss           0x00000000        0x0 build/zigbee_edc24.o
 .text.CalculateChecksum
                0x00000000       0x16 build/zigbee_edc24.o
 .text.change_float_data
                0x00000000        0x6 build/zigbee_edc24.o
 .text.HAL_UART_ErrorCallback
                0x00000000       0x30 build/zigbee_edc24.o
 .text.HAL_UARTEx_RxEventCallback
                0x00000000       0x1c build/zigbee_edc24.o
 .text.zigbee_Init
                0x00000000       0x50 build/zigbee_edc24.o
 .text.zigbeeMessageRecord
                0x00000000       0xd4 build/zigbee_edc24.o
 .text.getGameTime
                0x00000000        0xc build/zigbee_edc24.o
 .text.getGameStatus
                0x00000000       0x14 build/zigbee_edc24.o
 .text.getScore
                0x00000000       0x10 build/zigbee_edc24.o
 .text.getVehiclePos
                0x00000000       0x34 build/zigbee_edc24.o
 .text.getRemainDist
                0x00000000        0xc build/zigbee_edc24.o
 .text.getOrderNum
                0x00000000        0xc build/zigbee_edc24.o
 .text.getOneOrder
                0x00000000       0x54 build/zigbee_edc24.o
 .text.getLatestPendingOrder
                0x00000000       0x58 build/zigbee_edc24.o
 .text.getGameStage
                0x00000000        0xc build/zigbee_edc24.o
 .text.getOneBarrier
                0x00000000       0x44 build/zigbee_edc24.o
 .text.getHalfGameDuration
                0x00000000        0xc build/zigbee_edc24.o
 .text.getOwnChargingPileNum
                0x00000000        0xc build/zigbee_edc24.o
 .text.getOppChargingPileNum
                0x00000000       0x14 build/zigbee_edc24.o
 .text.getOneOwnPile
                0x00000000       0x38 build/zigbee_edc24.o
 .text.getOneOppPile
                0x00000000       0x38 build/zigbee_edc24.o
 .text.reqGameInfo
                0x00000000       0x1c build/zigbee_edc24.o
 .text.setChargingPile
                0x00000000       0x1c build/zigbee_edc24.o
 .bss.gameInfoMessage
                0x00000000       0x64 build/zigbee_edc24.o
 .bss.gameStatusMessage
                0x00000000       0x96 build/zigbee_edc24.o
 .bss.receive_flag
                0x00000000        0x1 build/zigbee_edc24.o
 .bss.zigbeeMessage
                0x00000000       0xc8 build/zigbee_edc24.o
 .bss.zigbee_huart
                0x00000000        0x4 build/zigbee_edc24.o
 .data.zigbeeSend
                0x00000000        0xc build/zigbee_edc24.o
 .debug_info    0x00000000      0xfac build/zigbee_edc24.o
 .debug_abbrev  0x00000000      0x37b build/zigbee_edc24.o
 .debug_loc     0x00000000      0x4e4 build/zigbee_edc24.o
 .debug_aranges
                0x00000000       0xd0 build/zigbee_edc24.o
 .debug_ranges  0x00000000       0xf0 build/zigbee_edc24.o
 .debug_line    0x00000000      0x79d build/zigbee_edc24.o
 .debug_str     0x00000000      0x972 build/zigbee_edc24.o
 .comment       0x00000000       0x58 build/zigbee_edc24.o
 .debug_frame   0x00000000      0x1f4 build/zigbee_edc24.o
 .ARM.attributes
                0x00000000       0x34 build/zigbee_edc24.o
 .text          0x00000000       0x14 build/startup_stm32f407xx.o
 .data          0x00000000        0x0 build/startup_stm32f407xx.o
 .bss           0x00000000        0x0 build/startup_stm32f407xx.o
 .text          0x00000000        0x0 d:/11.2 2022.02/bin/../lib/gcc/arm-none-eabi/11.2.1/thumb/v7e-m+fp/hard\libc.a(lib_a-exit.o)
 .data          0x00000000        0x0 d:/11.2 2022.02/bin/../lib/gcc/arm-none-eabi/11.2.1/thumb/v7e-m+fp/hard\libc.a(lib_a-exit.o)
 .bss           0x00000000        0x0 d:/11.2 2022.02/bin/../lib/gcc/arm-none-eabi/11.2.1/thumb/v7e-m+fp/hard\libc.a(lib_a-exit.o)
 .text.exit     0x00000000       0x20 d:/11.2 2022.02/bin/../lib/gcc/arm-none-eabi/11.2.1/thumb/v7e-m+fp/hard\libc.a(lib_a-exit.o)
 .debug_info    0x00000000      0x90c d:/11.2 2022.02/bin/../lib/gcc/arm-none-eabi/11.2.1/thumb/v7e-m+fp/hard\libc.a(lib_a-exit.o)
 .debug_abbrev  0x00000000      0x22d d:/11.2 2022.02/bin/../lib/gcc/arm-none-eabi/11.2.1/thumb/v7e-m+fp/hard\libc.a(lib_a-exit.o)
 .debug_loclists
                0x00000000       0x20 d:/11.2 2022.02/bin/../lib/gcc/arm-none-eabi/11.2.1/thumb/v7e-m+fp/hard\libc.a(lib_a-exit.o)
 .debug_aranges
                0x00000000       0x20 d:/11.2 2022.02/bin/../lib/gcc/arm-none-eabi/11.2.1/thumb/v7e-m+fp/hard\libc.a(lib_a-exit.o)
 .debug_rnglists
                0x00000000       0x13 d:/11.2 2022.02/bin/../lib/gcc/arm-none-eabi/11.2.1/thumb/v7e-m+fp/hard\libc.a(lib_a-exit.o)
 .debug_line    0x00000000      0x20d d:/11.2 2022.02/bin/../lib/gcc/arm-none-eabi/11.2.1/thumb/v7e-m+fp/hard\libc.a(lib_a-exit.o)
 .debug_str     0x00000000      0x5f7 d:/11.2 2022.02/bin/../lib/gcc/arm-none-eabi/11.2.1/thumb/v7e-m+fp/hard\libc.a(lib_a-exit.o)
 .comment       0x00000000       0x58 d:/11.2 2022.02/bin/../lib/gcc/arm-none-eabi/11.2.1/thumb/v7e-m+fp/hard\libc.a(lib_a-exit.o)
 .debug_frame   0x00000000       0x28 d:/11.2 2022.02/bin/../lib/gcc/arm-none-eabi/11.2.1/thumb/v7e-m+fp/hard\libc.a(lib_a-exit.o)
 .ARM.attributes
                0x00000000       0x34 d:/11.2 2022.02/bin/../lib/gcc/arm-none-eabi/11.2.1/thumb/v7e-m+fp/hard\libc.a(lib_a-exit.o)
 .text          0x00000000        0x0 d:/11.2 2022.02/bin/../lib/gcc/arm-none-eabi/11.2.1/thumb/v7e-m+fp/hard\libc.a(lib_a-impure.o)
 .data          0x00000000        0x0 d:/11.2 2022.02/bin/../lib/gcc/arm-none-eabi/11.2.1/thumb/v7e-m+fp/hard\libc.a(lib_a-impure.o)
 .bss           0x00000000        0x0 d:/11.2 2022.02/bin/../lib/gcc/arm-none-eabi/11.2.1/thumb/v7e-m+fp/hard\libc.a(lib_a-impure.o)
 .rodata._global_impure_ptr
                0x00000000        0x4 d:/11.2 2022.02/bin/../lib/gcc/arm-none-eabi/11.2.1/thumb/v7e-m+fp/hard\libc.a(lib_a-impure.o)
 .text          0x00000000        0x0 d:/11.2 2022.02/bin/../lib/gcc/arm-none-eabi/11.2.1/thumb/v7e-m+fp/hard\libc.a(lib_a-init.o)
 .data          0x00000000        0x0 d:/11.2 2022.02/bin/../lib/gcc/arm-none-eabi/11.2.1/thumb/v7e-m+fp/hard\libc.a(lib_a-init.o)
 .bss           0x00000000        0x0 d:/11.2 2022.02/bin/../lib/gcc/arm-none-eabi/11.2.1/thumb/v7e-m+fp/hard\libc.a(lib_a-init.o)
 .text          0x00000000        0x0 d:/11.2 2022.02/bin/../lib/gcc/arm-none-eabi/11.2.1/thumb/v7e-m+fp/hard\libc.a(lib_a-memset.o)
 .data          0x00000000        0x0 d:/11.2 2022.02/bin/../lib/gcc/arm-none-eabi/11.2.1/thumb/v7e-m+fp/hard\libc.a(lib_a-memset.o)
 .bss           0x00000000        0x0 d:/11.2 2022.02/bin/../lib/gcc/arm-none-eabi/11.2.1/thumb/v7e-m+fp/hard\libc.a(lib_a-memset.o)
 .data          0x00000000        0x0 d:/11.2 2022.02/bin/../lib/gcc/arm-none-eabi/11.2.1/thumb/v7e-m+fp/hard\libc.a(lib_a-strlen.o)
 .bss           0x00000000        0x0 d:/11.2 2022.02/bin/../lib/gcc/arm-none-eabi/11.2.1/thumb/v7e-m+fp/hard\libc.a(lib_a-strlen.o)
 .text          0x00000000        0x0 d:/11.2 2022.02/bin/../lib/gcc/arm-none-eabi/11.2.1/thumb/v7e-m+fp/hard\libc.a(lib_a-vsprintf.o)
 .data          0x00000000        0x0 d:/11.2 2022.02/bin/../lib/gcc/arm-none-eabi/11.2.1/thumb/v7e-m+fp/hard\libc.a(lib_a-vsprintf.o)
 .bss           0x00000000        0x0 d:/11.2 2022.02/bin/../lib/gcc/arm-none-eabi/11.2.1/thumb/v7e-m+fp/hard\libc.a(lib_a-vsprintf.o)
 .text._vsprintf_r
                0x00000000       0x28 d:/11.2 2022.02/bin/../lib/gcc/arm-none-eabi/11.2.1/thumb/v7e-m+fp/hard\libc.a(lib_a-vsprintf.o)
 .text          0x00000000        0x0 d:/11.2 2022.02/bin/../lib/gcc/arm-none-eabi/11.2.1/thumb/v7e-m+fp/hard\libc.a(lib_a-__call_atexit.o)
 .data          0x00000000        0x0 d:/11.2 2022.02/bin/../lib/gcc/arm-none-eabi/11.2.1/thumb/v7e-m+fp/hard\libc.a(lib_a-__call_atexit.o)
 .bss           0x00000000        0x0 d:/11.2 2022.02/bin/../lib/gcc/arm-none-eabi/11.2.1/thumb/v7e-m+fp/hard\libc.a(lib_a-__call_atexit.o)
 .text.__call_exitprocs
                0x00000000       0xb8 d:/11.2 2022.02/bin/../lib/gcc/arm-none-eabi/11.2.1/thumb/v7e-m+fp/hard\libc.a(lib_a-__call_atexit.o)
 .debug_info    0x00000000      0x980 d:/11.2 2022.02/bin/../lib/gcc/arm-none-eabi/11.2.1/thumb/v7e-m+fp/hard\libc.a(lib_a-__call_atexit.o)
 .debug_abbrev  0x00000000      0x255 d:/11.2 2022.02/bin/../lib/gcc/arm-none-eabi/11.2.1/thumb/v7e-m+fp/hard\libc.a(lib_a-__call_atexit.o)
 .debug_loclists
                0x00000000      0x12a d:/11.2 2022.02/bin/../lib/gcc/arm-none-eabi/11.2.1/thumb/v7e-m+fp/hard\libc.a(lib_a-__call_atexit.o)
 .debug_aranges
                0x00000000       0x20 d:/11.2 2022.02/bin/../lib/gcc/arm-none-eabi/11.2.1/thumb/v7e-m+fp/hard\libc.a(lib_a-__call_atexit.o)
 .debug_rnglists
                0x00000000       0x2f d:/11.2 2022.02/bin/../lib/gcc/arm-none-eabi/11.2.1/thumb/v7e-m+fp/hard\libc.a(lib_a-__call_atexit.o)
 .debug_line    0x00000000      0x298 d:/11.2 2022.02/bin/../lib/gcc/arm-none-eabi/11.2.1/thumb/v7e-m+fp/hard\libc.a(lib_a-__call_atexit.o)
 .debug_str     0x00000000      0x621 d:/11.2 2022.02/bin/../lib/gcc/arm-none-eabi/11.2.1/thumb/v7e-m+fp/hard\libc.a(lib_a-__call_atexit.o)
 .comment       0x00000000       0x58 d:/11.2 2022.02/bin/../lib/gcc/arm-none-eabi/11.2.1/thumb/v7e-m+fp/hard\libc.a(lib_a-__call_atexit.o)
 .debug_frame   0x00000000       0x4c d:/11.2 2022.02/bin/../lib/gcc/arm-none-eabi/11.2.1/thumb/v7e-m+fp/hard\libc.a(lib_a-__call_atexit.o)
 .ARM.attributes
                0x00000000       0x34 d:/11.2 2022.02/bin/../lib/gcc/arm-none-eabi/11.2.1/thumb/v7e-m+fp/hard\libc.a(lib_a-__call_atexit.o)
 .text          0x00000000        0x0 d:/11.2 2022.02/bin/../lib/gcc/arm-none-eabi/11.2.1/thumb/v7e-m+fp/hard\libc.a(lib_a-svfprintf.o)
 .data          0x00000000        0x0 d:/11.2 2022.02/bin/../lib/gcc/arm-none-eabi/11.2.1/thumb/v7e-m+fp/hard\libc.a(lib_a-svfprintf.o)
 .bss           0x00000000        0x0 d:/11.2 2022.02/bin/../lib/gcc/arm-none-eabi/11.2.1/thumb/v7e-m+fp/hard\libc.a(lib_a-svfprintf.o)
 .text          0x00000000        0x0 d:/11.2 2022.02/bin/../lib/gcc/arm-none-eabi/11.2.1/thumb/v7e-m+fp/hard\libc.a(lib_a-wcrtomb.o)
 .data          0x00000000        0x0 d:/11.2 2022.02/bin/../lib/gcc/arm-none-eabi/11.2.1/thumb/v7e-m+fp/hard\libc.a(lib_a-wcrtomb.o)
 .bss           0x00000000        0x0 d:/11.2 2022.02/bin/../lib/gcc/arm-none-eabi/11.2.1/thumb/v7e-m+fp/hard\libc.a(lib_a-wcrtomb.o)
 .text.wcrtomb  0x00000000       0x58 d:/11.2 2022.02/bin/../lib/gcc/arm-none-eabi/11.2.1/thumb/v7e-m+fp/hard\libc.a(lib_a-wcrtomb.o)
 .text          0x00000000        0x0 d:/11.2 2022.02/bin/../lib/gcc/arm-none-eabi/11.2.1/thumb/v7e-m+fp/hard\libc.a(lib_a-wcsrtombs.o)
 .data          0x00000000        0x0 d:/11.2 2022.02/bin/../lib/gcc/arm-none-eabi/11.2.1/thumb/v7e-m+fp/hard\libc.a(lib_a-wcsrtombs.o)
 .bss           0x00000000        0x0 d:/11.2 2022.02/bin/../lib/gcc/arm-none-eabi/11.2.1/thumb/v7e-m+fp/hard\libc.a(lib_a-wcsrtombs.o)
 .text.wcsrtombs
                0x00000000       0x24 d:/11.2 2022.02/bin/../lib/gcc/arm-none-eabi/11.2.1/thumb/v7e-m+fp/hard\libc.a(lib_a-wcsrtombs.o)
 .text          0x00000000        0x0 d:/11.2 2022.02/bin/../lib/gcc/arm-none-eabi/11.2.1/thumb/v7e-m+fp/hard\libc.a(lib_a-dtoa.o)
 .data          0x00000000        0x0 d:/11.2 2022.02/bin/../lib/gcc/arm-none-eabi/11.2.1/thumb/v7e-m+fp/hard\libc.a(lib_a-dtoa.o)
 .bss           0x00000000        0x0 d:/11.2 2022.02/bin/../lib/gcc/arm-none-eabi/11.2.1/thumb/v7e-m+fp/hard\libc.a(lib_a-dtoa.o)
 .text          0x00000000        0x0 d:/11.2 2022.02/bin/../lib/gcc/arm-none-eabi/11.2.1/thumb/v7e-m+fp/hard\libc.a(lib_a-freer.o)
 .data          0x00000000        0x0 d:/11.2 2022.02/bin/../lib/gcc/arm-none-eabi/11.2.1/thumb/v7e-m+fp/hard\libc.a(lib_a-freer.o)
 .bss           0x00000000        0x0 d:/11.2 2022.02/bin/../lib/gcc/arm-none-eabi/11.2.1/thumb/v7e-m+fp/hard\libc.a(lib_a-freer.o)
 .text          0x00000000        0x0 d:/11.2 2022.02/bin/../lib/gcc/arm-none-eabi/11.2.1/thumb/v7e-m+fp/hard\libc.a(lib_a-localeconv.o)
 .data          0x00000000        0x0 d:/11.2 2022.02/bin/../lib/gcc/arm-none-eabi/11.2.1/thumb/v7e-m+fp/hard\libc.a(lib_a-localeconv.o)
 .bss           0x00000000        0x0 d:/11.2 2022.02/bin/../lib/gcc/arm-none-eabi/11.2.1/thumb/v7e-m+fp/hard\libc.a(lib_a-localeconv.o)
 .text.__localeconv_l
                0x00000000        0x4 d:/11.2 2022.02/bin/../lib/gcc/arm-none-eabi/11.2.1/thumb/v7e-m+fp/hard\libc.a(lib_a-localeconv.o)
 .text.localeconv
                0x00000000        0x8 d:/11.2 2022.02/bin/../lib/gcc/arm-none-eabi/11.2.1/thumb/v7e-m+fp/hard\libc.a(lib_a-localeconv.o)
 .text          0x00000000        0x0 d:/11.2 2022.02/bin/../lib/gcc/arm-none-eabi/11.2.1/thumb/v7e-m+fp/hard\libc.a(lib_a-locale.o)
 .data          0x00000000        0x0 d:/11.2 2022.02/bin/../lib/gcc/arm-none-eabi/11.2.1/thumb/v7e-m+fp/hard\libc.a(lib_a-locale.o)
 .bss           0x00000000        0x0 d:/11.2 2022.02/bin/../lib/gcc/arm-none-eabi/11.2.1/thumb/v7e-m+fp/hard\libc.a(lib_a-locale.o)
 .rodata.currentlocale.str1.4
                0x00000000        0x2 d:/11.2 2022.02/bin/../lib/gcc/arm-none-eabi/11.2.1/thumb/v7e-m+fp/hard\libc.a(lib_a-locale.o)
 .text.currentlocale
                0x00000000       0x58 d:/11.2 2022.02/bin/../lib/gcc/arm-none-eabi/11.2.1/thumb/v7e-m+fp/hard\libc.a(lib_a-locale.o)
 .rodata.__loadlocale.str1.4
                0x00000000       0xd6 d:/11.2 2022.02/bin/../lib/gcc/arm-none-eabi/11.2.1/thumb/v7e-m+fp/hard\libc.a(lib_a-locale.o)
 .text.__loadlocale
                0x00000000      0x628 d:/11.2 2022.02/bin/../lib/gcc/arm-none-eabi/11.2.1/thumb/v7e-m+fp/hard\libc.a(lib_a-locale.o)
 .rodata.__get_locale_env.str1.4
                0x00000000        0xd d:/11.2 2022.02/bin/../lib/gcc/arm-none-eabi/11.2.1/thumb/v7e-m+fp/hard\libc.a(lib_a-locale.o)
 .text.__get_locale_env
                0x00000000       0x50 d:/11.2 2022.02/bin/../lib/gcc/arm-none-eabi/11.2.1/thumb/v7e-m+fp/hard\libc.a(lib_a-locale.o)
 .text._setlocale_r.part.0
                0x00000000      0x21c d:/11.2 2022.02/bin/../lib/gcc/arm-none-eabi/11.2.1/thumb/v7e-m+fp/hard\libc.a(lib_a-locale.o)
 .text._setlocale_r
                0x00000000       0x34 d:/11.2 2022.02/bin/../lib/gcc/arm-none-eabi/11.2.1/thumb/v7e-m+fp/hard\libc.a(lib_a-locale.o)
 .text.setlocale
                0x00000000       0x34 d:/11.2 2022.02/bin/../lib/gcc/arm-none-eabi/11.2.1/thumb/v7e-m+fp/hard\libc.a(lib_a-locale.o)
 .bss._PathLocale
                0x00000000        0x4 d:/11.2 2022.02/bin/../lib/gcc/arm-none-eabi/11.2.1/thumb/v7e-m+fp/hard\libc.a(lib_a-locale.o)
 .bss.global_locale_string
                0x00000000       0xe7 d:/11.2 2022.02/bin/../lib/gcc/arm-none-eabi/11.2.1/thumb/v7e-m+fp/hard\libc.a(lib_a-locale.o)
 .bss.new_categories.1
                0x00000000       0xe0 d:/11.2 2022.02/bin/../lib/gcc/arm-none-eabi/11.2.1/thumb/v7e-m+fp/hard\libc.a(lib_a-locale.o)
 .bss.saved_categories.0
                0x00000000       0xe0 d:/11.2 2022.02/bin/../lib/gcc/arm-none-eabi/11.2.1/thumb/v7e-m+fp/hard\libc.a(lib_a-locale.o)
 .data.__default_locale
                0x00000000       0x20 d:/11.2 2022.02/bin/../lib/gcc/arm-none-eabi/11.2.1/thumb/v7e-m+fp/hard\libc.a(lib_a-locale.o)
 .rodata.__C_locale
                0x00000000      0x16c d:/11.2 2022.02/bin/../lib/gcc/arm-none-eabi/11.2.1/thumb/v7e-m+fp/hard\libc.a(lib_a-locale.o)
 .rodata.categories
                0x00000000       0x1c d:/11.2 2022.02/bin/../lib/gcc/arm-none-eabi/11.2.1/thumb/v7e-m+fp/hard\libc.a(lib_a-locale.o)
 .text          0x00000000        0x0 d:/11.2 2022.02/bin/../lib/gcc/arm-none-eabi/11.2.1/thumb/v7e-m+fp/hard\libc.a(lib_a-mallocr.o)
 .data          0x00000000        0x0 d:/11.2 2022.02/bin/../lib/gcc/arm-none-eabi/11.2.1/thumb/v7e-m+fp/hard\libc.a(lib_a-mallocr.o)
 .bss           0x00000000        0x0 d:/11.2 2022.02/bin/../lib/gcc/arm-none-eabi/11.2.1/thumb/v7e-m+fp/hard\libc.a(lib_a-mallocr.o)
 .text          0x00000000        0x0 d:/11.2 2022.02/bin/../lib/gcc/arm-none-eabi/11.2.1/thumb/v7e-m+fp/hard\libc.a(lib_a-mbtowc_r.o)
 .data          0x00000000        0x0 d:/11.2 2022.02/bin/../lib/gcc/arm-none-eabi/11.2.1/thumb/v7e-m+fp/hard\libc.a(lib_a-mbtowc_r.o)
 .bss           0x00000000        0x0 d:/11.2 2022.02/bin/../lib/gcc/arm-none-eabi/11.2.1/thumb/v7e-m+fp/hard\libc.a(lib_a-mbtowc_r.o)
 .text._mbtowc_r
                0x00000000       0x14 d:/11.2 2022.02/bin/../lib/gcc/arm-none-eabi/11.2.1/thumb/v7e-m+fp/hard\libc.a(lib_a-mbtowc_r.o)
 .text.__utf8_mbtowc
                0x00000000      0x1d0 d:/11.2 2022.02/bin/../lib/gcc/arm-none-eabi/11.2.1/thumb/v7e-m+fp/hard\libc.a(lib_a-mbtowc_r.o)
 .text.__sjis_mbtowc
                0x00000000       0x90 d:/11.2 2022.02/bin/../lib/gcc/arm-none-eabi/11.2.1/thumb/v7e-m+fp/hard\libc.a(lib_a-mbtowc_r.o)
 .text.__eucjp_mbtowc
                0x00000000       0xc0 d:/11.2 2022.02/bin/../lib/gcc/arm-none-eabi/11.2.1/thumb/v7e-m+fp/hard\libc.a(lib_a-mbtowc_r.o)
 .text.__jis_mbtowc
                0x00000000      0x144 d:/11.2 2022.02/bin/../lib/gcc/arm-none-eabi/11.2.1/thumb/v7e-m+fp/hard\libc.a(lib_a-mbtowc_r.o)
 .rodata.JIS_action_table
                0x00000000       0x48 d:/11.2 2022.02/bin/../lib/gcc/arm-none-eabi/11.2.1/thumb/v7e-m+fp/hard\libc.a(lib_a-mbtowc_r.o)
 .rodata.JIS_state_table
                0x00000000       0x48 d:/11.2 2022.02/bin/../lib/gcc/arm-none-eabi/11.2.1/thumb/v7e-m+fp/hard\libc.a(lib_a-mbtowc_r.o)
 .data          0x00000000        0x0 d:/11.2 2022.02/bin/../lib/gcc/arm-none-eabi/11.2.1/thumb/v7e-m+fp/hard\libc.a(lib_a-memchr.o)
 .bss           0x00000000        0x0 d:/11.2 2022.02/bin/../lib/gcc/arm-none-eabi/11.2.1/thumb/v7e-m+fp/hard\libc.a(lib_a-memchr.o)
 .data          0x00000000        0x0 d:/11.2 2022.02/bin/../lib/gcc/arm-none-eabi/11.2.1/thumb/v7e-m+fp/hard\libc.a(lib_a-memcpy.o)
 .bss           0x00000000        0x0 d:/11.2 2022.02/bin/../lib/gcc/arm-none-eabi/11.2.1/thumb/v7e-m+fp/hard\libc.a(lib_a-memcpy.o)
 .text          0x00000000        0x0 d:/11.2 2022.02/bin/../lib/gcc/arm-none-eabi/11.2.1/thumb/v7e-m+fp/hard\libc.a(lib_a-mlock.o)
 .data          0x00000000        0x0 d:/11.2 2022.02/bin/../lib/gcc/arm-none-eabi/11.2.1/thumb/v7e-m+fp/hard\libc.a(lib_a-mlock.o)
 .bss           0x00000000        0x0 d:/11.2 2022.02/bin/../lib/gcc/arm-none-eabi/11.2.1/thumb/v7e-m+fp/hard\libc.a(lib_a-mlock.o)
 .text          0x00000000        0x0 d:/11.2 2022.02/bin/../lib/gcc/arm-none-eabi/11.2.1/thumb/v7e-m+fp/hard\libc.a(lib_a-mprec.o)
 .data          0x00000000        0x0 d:/11.2 2022.02/bin/../lib/gcc/arm-none-eabi/11.2.1/thumb/v7e-m+fp/hard\libc.a(lib_a-mprec.o)
 .bss           0x00000000        0x0 d:/11.2 2022.02/bin/../lib/gcc/arm-none-eabi/11.2.1/thumb/v7e-m+fp/hard\libc.a(lib_a-mprec.o)
 .text.__s2b    0x00000000       0xb0 d:/11.2 2022.02/bin/../lib/gcc/arm-none-eabi/11.2.1/thumb/v7e-m+fp/hard\libc.a(lib_a-mprec.o)
 .text.__ulp    0x00000000       0x64 d:/11.2 2022.02/bin/../lib/gcc/arm-none-eabi/11.2.1/thumb/v7e-m+fp/hard\libc.a(lib_a-mprec.o)
 .text.__b2d    0x00000000       0xc4 d:/11.2 2022.02/bin/../lib/gcc/arm-none-eabi/11.2.1/thumb/v7e-m+fp/hard\libc.a(lib_a-mprec.o)
 .text.__ratio  0x00000000       0x5c d:/11.2 2022.02/bin/../lib/gcc/arm-none-eabi/11.2.1/thumb/v7e-m+fp/hard\libc.a(lib_a-mprec.o)
 .text._mprec_log10
                0x00000000       0x40 d:/11.2 2022.02/bin/../lib/gcc/arm-none-eabi/11.2.1/thumb/v7e-m+fp/hard\libc.a(lib_a-mprec.o)
 .text.__copybits
                0x00000000       0x5c d:/11.2 2022.02/bin/../lib/gcc/arm-none-eabi/11.2.1/thumb/v7e-m+fp/hard\libc.a(lib_a-mprec.o)
 .text.__any_on
                0x00000000       0x64 d:/11.2 2022.02/bin/../lib/gcc/arm-none-eabi/11.2.1/thumb/v7e-m+fp/hard\libc.a(lib_a-mprec.o)
 .rodata.__mprec_tinytens
                0x00000000       0x28 d:/11.2 2022.02/bin/../lib/gcc/arm-none-eabi/11.2.1/thumb/v7e-m+fp/hard\libc.a(lib_a-mprec.o)
 .text          0x00000000        0x0 d:/11.2 2022.02/bin/../lib/gcc/arm-none-eabi/11.2.1/thumb/v7e-m+fp/hard\libc.a(lib_a-sbrkr.o)
 .data          0x00000000        0x0 d:/11.2 2022.02/bin/../lib/gcc/arm-none-eabi/11.2.1/thumb/v7e-m+fp/hard\libc.a(lib_a-sbrkr.o)
 .bss           0x00000000        0x0 d:/11.2 2022.02/bin/../lib/gcc/arm-none-eabi/11.2.1/thumb/v7e-m+fp/hard\libc.a(lib_a-sbrkr.o)
 .text          0x00000000        0x0 d:/11.2 2022.02/bin/../lib/gcc/arm-none-eabi/11.2.1/thumb/v7e-m+fp/hard\libc.a(lib_a-s_frexp.o)
 .data          0x00000000        0x0 d:/11.2 2022.02/bin/../lib/gcc/arm-none-eabi/11.2.1/thumb/v7e-m+fp/hard\libc.a(lib_a-s_frexp.o)
 .bss           0x00000000        0x0 d:/11.2 2022.02/bin/../lib/gcc/arm-none-eabi/11.2.1/thumb/v7e-m+fp/hard\libc.a(lib_a-s_frexp.o)
 .text          0x00000000        0x0 d:/11.2 2022.02/bin/../lib/gcc/arm-none-eabi/11.2.1/thumb/v7e-m+fp/hard\libc.a(lib_a-strcasecmp.o)
 .data          0x00000000        0x0 d:/11.2 2022.02/bin/../lib/gcc/arm-none-eabi/11.2.1/thumb/v7e-m+fp/hard\libc.a(lib_a-strcasecmp.o)
 .bss           0x00000000        0x0 d:/11.2 2022.02/bin/../lib/gcc/arm-none-eabi/11.2.1/thumb/v7e-m+fp/hard\libc.a(lib_a-strcasecmp.o)
 .text.strcasecmp
                0x00000000       0x54 d:/11.2 2022.02/bin/../lib/gcc/arm-none-eabi/11.2.1/thumb/v7e-m+fp/hard\libc.a(lib_a-strcasecmp.o)
 .debug_info    0x00000000      0x157 d:/11.2 2022.02/bin/../lib/gcc/arm-none-eabi/11.2.1/thumb/v7e-m+fp/hard\libc.a(lib_a-strcasecmp.o)
 .debug_abbrev  0x00000000       0xb2 d:/11.2 2022.02/bin/../lib/gcc/arm-none-eabi/11.2.1/thumb/v7e-m+fp/hard\libc.a(lib_a-strcasecmp.o)
 .debug_loclists
                0x00000000      0x18f d:/11.2 2022.02/bin/../lib/gcc/arm-none-eabi/11.2.1/thumb/v7e-m+fp/hard\libc.a(lib_a-strcasecmp.o)
 .debug_aranges
                0x00000000       0x20 d:/11.2 2022.02/bin/../lib/gcc/arm-none-eabi/11.2.1/thumb/v7e-m+fp/hard\libc.a(lib_a-strcasecmp.o)
 .debug_rnglists
                0x00000000       0x3d d:/11.2 2022.02/bin/../lib/gcc/arm-none-eabi/11.2.1/thumb/v7e-m+fp/hard\libc.a(lib_a-strcasecmp.o)
 .debug_line    0x00000000      0x170 d:/11.2 2022.02/bin/../lib/gcc/arm-none-eabi/11.2.1/thumb/v7e-m+fp/hard\libc.a(lib_a-strcasecmp.o)
 .debug_str     0x00000000      0x21c d:/11.2 2022.02/bin/../lib/gcc/arm-none-eabi/11.2.1/thumb/v7e-m+fp/hard\libc.a(lib_a-strcasecmp.o)
 .comment       0x00000000       0x58 d:/11.2 2022.02/bin/../lib/gcc/arm-none-eabi/11.2.1/thumb/v7e-m+fp/hard\libc.a(lib_a-strcasecmp.o)
 .debug_frame   0x00000000       0x3c d:/11.2 2022.02/bin/../lib/gcc/arm-none-eabi/11.2.1/thumb/v7e-m+fp/hard\libc.a(lib_a-strcasecmp.o)
 .ARM.attributes
                0x00000000       0x34 d:/11.2 2022.02/bin/../lib/gcc/arm-none-eabi/11.2.1/thumb/v7e-m+fp/hard\libc.a(lib_a-strcasecmp.o)
 .text          0x00000000        0x0 d:/11.2 2022.02/bin/../lib/gcc/arm-none-eabi/11.2.1/thumb/v7e-m+fp/hard\libc.a(lib_a-strcat.o)
 .data          0x00000000        0x0 d:/11.2 2022.02/bin/../lib/gcc/arm-none-eabi/11.2.1/thumb/v7e-m+fp/hard\libc.a(lib_a-strcat.o)
 .bss           0x00000000        0x0 d:/11.2 2022.02/bin/../lib/gcc/arm-none-eabi/11.2.1/thumb/v7e-m+fp/hard\libc.a(lib_a-strcat.o)
 .text.strcat   0x00000000       0x40 d:/11.2 2022.02/bin/../lib/gcc/arm-none-eabi/11.2.1/thumb/v7e-m+fp/hard\libc.a(lib_a-strcat.o)
 .debug_info    0x00000000      0x130 d:/11.2 2022.02/bin/../lib/gcc/arm-none-eabi/11.2.1/thumb/v7e-m+fp/hard\libc.a(lib_a-strcat.o)
 .debug_abbrev  0x00000000       0xce d:/11.2 2022.02/bin/../lib/gcc/arm-none-eabi/11.2.1/thumb/v7e-m+fp/hard\libc.a(lib_a-strcat.o)
 .debug_loclists
                0x00000000       0x7f d:/11.2 2022.02/bin/../lib/gcc/arm-none-eabi/11.2.1/thumb/v7e-m+fp/hard\libc.a(lib_a-strcat.o)
 .debug_aranges
                0x00000000       0x20 d:/11.2 2022.02/bin/../lib/gcc/arm-none-eabi/11.2.1/thumb/v7e-m+fp/hard\libc.a(lib_a-strcat.o)
 .debug_rnglists
                0x00000000       0x13 d:/11.2 2022.02/bin/../lib/gcc/arm-none-eabi/11.2.1/thumb/v7e-m+fp/hard\libc.a(lib_a-strcat.o)
 .debug_line    0x00000000      0x135 d:/11.2 2022.02/bin/../lib/gcc/arm-none-eabi/11.2.1/thumb/v7e-m+fp/hard\libc.a(lib_a-strcat.o)
 .debug_str     0x00000000      0x21e d:/11.2 2022.02/bin/../lib/gcc/arm-none-eabi/11.2.1/thumb/v7e-m+fp/hard\libc.a(lib_a-strcat.o)
 .comment       0x00000000       0x58 d:/11.2 2022.02/bin/../lib/gcc/arm-none-eabi/11.2.1/thumb/v7e-m+fp/hard\libc.a(lib_a-strcat.o)
 .debug_frame   0x00000000       0x28 d:/11.2 2022.02/bin/../lib/gcc/arm-none-eabi/11.2.1/thumb/v7e-m+fp/hard\libc.a(lib_a-strcat.o)
 .ARM.attributes
                0x00000000       0x34 d:/11.2 2022.02/bin/../lib/gcc/arm-none-eabi/11.2.1/thumb/v7e-m+fp/hard\libc.a(lib_a-strcat.o)
 .text          0x00000000        0x0 d:/11.2 2022.02/bin/../lib/gcc/arm-none-eabi/11.2.1/thumb/v7e-m+fp/hard\libc.a(lib_a-strchr.o)
 .data          0x00000000        0x0 d:/11.2 2022.02/bin/../lib/gcc/arm-none-eabi/11.2.1/thumb/v7e-m+fp/hard\libc.a(lib_a-strchr.o)
 .bss           0x00000000        0x0 d:/11.2 2022.02/bin/../lib/gcc/arm-none-eabi/11.2.1/thumb/v7e-m+fp/hard\libc.a(lib_a-strchr.o)
 .text.strchr   0x00000000       0xcc d:/11.2 2022.02/bin/../lib/gcc/arm-none-eabi/11.2.1/thumb/v7e-m+fp/hard\libc.a(lib_a-strchr.o)
 .debug_info    0x00000000      0x130 d:/11.2 2022.02/bin/../lib/gcc/arm-none-eabi/11.2.1/thumb/v7e-m+fp/hard\libc.a(lib_a-strchr.o)
 .debug_abbrev  0x00000000       0x97 d:/11.2 2022.02/bin/../lib/gcc/arm-none-eabi/11.2.1/thumb/v7e-m+fp/hard\libc.a(lib_a-strchr.o)
 .debug_loclists
                0x00000000      0x146 d:/11.2 2022.02/bin/../lib/gcc/arm-none-eabi/11.2.1/thumb/v7e-m+fp/hard\libc.a(lib_a-strchr.o)
 .debug_aranges
                0x00000000       0x20 d:/11.2 2022.02/bin/../lib/gcc/arm-none-eabi/11.2.1/thumb/v7e-m+fp/hard\libc.a(lib_a-strchr.o)
 .debug_rnglists
                0x00000000       0x14 d:/11.2 2022.02/bin/../lib/gcc/arm-none-eabi/11.2.1/thumb/v7e-m+fp/hard\libc.a(lib_a-strchr.o)
 .debug_line    0x00000000      0x1f0 d:/11.2 2022.02/bin/../lib/gcc/arm-none-eabi/11.2.1/thumb/v7e-m+fp/hard\libc.a(lib_a-strchr.o)
 .debug_str     0x00000000      0x21e d:/11.2 2022.02/bin/../lib/gcc/arm-none-eabi/11.2.1/thumb/v7e-m+fp/hard\libc.a(lib_a-strchr.o)
 .comment       0x00000000       0x58 d:/11.2 2022.02/bin/../lib/gcc/arm-none-eabi/11.2.1/thumb/v7e-m+fp/hard\libc.a(lib_a-strchr.o)
 .debug_frame   0x00000000       0x34 d:/11.2 2022.02/bin/../lib/gcc/arm-none-eabi/11.2.1/thumb/v7e-m+fp/hard\libc.a(lib_a-strchr.o)
 .ARM.attributes
                0x00000000       0x34 d:/11.2 2022.02/bin/../lib/gcc/arm-none-eabi/11.2.1/thumb/v7e-m+fp/hard\libc.a(lib_a-strchr.o)
 .text          0x00000000      0x2dc d:/11.2 2022.02/bin/../lib/gcc/arm-none-eabi/11.2.1/thumb/v7e-m+fp/hard\libc.a(lib_a-strcmp.o)
 .data          0x00000000        0x0 d:/11.2 2022.02/bin/../lib/gcc/arm-none-eabi/11.2.1/thumb/v7e-m+fp/hard\libc.a(lib_a-strcmp.o)
 .bss           0x00000000        0x0 d:/11.2 2022.02/bin/../lib/gcc/arm-none-eabi/11.2.1/thumb/v7e-m+fp/hard\libc.a(lib_a-strcmp.o)
 .debug_line    0x00000000      0x10f d:/11.2 2022.02/bin/../lib/gcc/arm-none-eabi/11.2.1/thumb/v7e-m+fp/hard\libc.a(lib_a-strcmp.o)
 .debug_line_str
                0x00000000       0xcc d:/11.2 2022.02/bin/../lib/gcc/arm-none-eabi/11.2.1/thumb/v7e-m+fp/hard\libc.a(lib_a-strcmp.o)
 .debug_info    0x00000000       0x25 d:/11.2 2022.02/bin/../lib/gcc/arm-none-eabi/11.2.1/thumb/v7e-m+fp/hard\libc.a(lib_a-strcmp.o)
 .debug_abbrev  0x00000000       0x14 d:/11.2 2022.02/bin/../lib/gcc/arm-none-eabi/11.2.1/thumb/v7e-m+fp/hard\libc.a(lib_a-strcmp.o)
 .debug_aranges
                0x00000000       0x20 d:/11.2 2022.02/bin/../lib/gcc/arm-none-eabi/11.2.1/thumb/v7e-m+fp/hard\libc.a(lib_a-strcmp.o)
 .debug_str     0x00000000       0xa8 d:/11.2 2022.02/bin/../lib/gcc/arm-none-eabi/11.2.1/thumb/v7e-m+fp/hard\libc.a(lib_a-strcmp.o)
 .debug_frame   0x00000000       0x68 d:/11.2 2022.02/bin/../lib/gcc/arm-none-eabi/11.2.1/thumb/v7e-m+fp/hard\libc.a(lib_a-strcmp.o)
 .ARM.attributes
                0x00000000       0x1c d:/11.2 2022.02/bin/../lib/gcc/arm-none-eabi/11.2.1/thumb/v7e-m+fp/hard\libc.a(lib_a-strcmp.o)
 .text          0x00000000        0x0 d:/11.2 2022.02/bin/../lib/gcc/arm-none-eabi/11.2.1/thumb/v7e-m+fp/hard\libc.a(lib_a-strcpy.o)
 .data          0x00000000        0x0 d:/11.2 2022.02/bin/../lib/gcc/arm-none-eabi/11.2.1/thumb/v7e-m+fp/hard\libc.a(lib_a-strcpy.o)
 .bss           0x00000000        0x0 d:/11.2 2022.02/bin/../lib/gcc/arm-none-eabi/11.2.1/thumb/v7e-m+fp/hard\libc.a(lib_a-strcpy.o)
 .text.strcpy   0x00000000       0xbc d:/11.2 2022.02/bin/../lib/gcc/arm-none-eabi/11.2.1/thumb/v7e-m+fp/hard\libc.a(lib_a-strcpy.o)
 .debug_info    0x00000000       0xc3 d:/11.2 2022.02/bin/../lib/gcc/arm-none-eabi/11.2.1/thumb/v7e-m+fp/hard\libc.a(lib_a-strcpy.o)
 .debug_abbrev  0x00000000       0x7b d:/11.2 2022.02/bin/../lib/gcc/arm-none-eabi/11.2.1/thumb/v7e-m+fp/hard\libc.a(lib_a-strcpy.o)
 .debug_loclists
                0x00000000       0x26 d:/11.2 2022.02/bin/../lib/gcc/arm-none-eabi/11.2.1/thumb/v7e-m+fp/hard\libc.a(lib_a-strcpy.o)
 .debug_aranges
                0x00000000       0x20 d:/11.2 2022.02/bin/../lib/gcc/arm-none-eabi/11.2.1/thumb/v7e-m+fp/hard\libc.a(lib_a-strcpy.o)
 .debug_rnglists
                0x00000000       0x14 d:/11.2 2022.02/bin/../lib/gcc/arm-none-eabi/11.2.1/thumb/v7e-m+fp/hard\libc.a(lib_a-strcpy.o)
 .debug_line    0x00000000       0xfa d:/11.2 2022.02/bin/../lib/gcc/arm-none-eabi/11.2.1/thumb/v7e-m+fp/hard\libc.a(lib_a-strcpy.o)
 .debug_str     0x00000000      0x216 d:/11.2 2022.02/bin/../lib/gcc/arm-none-eabi/11.2.1/thumb/v7e-m+fp/hard\libc.a(lib_a-strcpy.o)
 .comment       0x00000000       0x58 d:/11.2 2022.02/bin/../lib/gcc/arm-none-eabi/11.2.1/thumb/v7e-m+fp/hard\libc.a(lib_a-strcpy.o)
 .debug_frame   0x00000000       0x20 d:/11.2 2022.02/bin/../lib/gcc/arm-none-eabi/11.2.1/thumb/v7e-m+fp/hard\libc.a(lib_a-strcpy.o)
 .ARM.attributes
                0x00000000       0x34 d:/11.2 2022.02/bin/../lib/gcc/arm-none-eabi/11.2.1/thumb/v7e-m+fp/hard\libc.a(lib_a-strcpy.o)
 .text          0x00000000        0x0 d:/11.2 2022.02/bin/../lib/gcc/arm-none-eabi/11.2.1/thumb/v7e-m+fp/hard\libc.a(lib_a-strlcpy.o)
 .data          0x00000000        0x0 d:/11.2 2022.02/bin/../lib/gcc/arm-none-eabi/11.2.1/thumb/v7e-m+fp/hard\libc.a(lib_a-strlcpy.o)
 .bss           0x00000000        0x0 d:/11.2 2022.02/bin/../lib/gcc/arm-none-eabi/11.2.1/thumb/v7e-m+fp/hard\libc.a(lib_a-strlcpy.o)
 .text.strlcpy  0x00000000       0x5c d:/11.2 2022.02/bin/../lib/gcc/arm-none-eabi/11.2.1/thumb/v7e-m+fp/hard\libc.a(lib_a-strlcpy.o)
 .debug_info    0x00000000      0x119 d:/11.2 2022.02/bin/../lib/gcc/arm-none-eabi/11.2.1/thumb/v7e-m+fp/hard\libc.a(lib_a-strlcpy.o)
 .debug_abbrev  0x00000000       0x8f d:/11.2 2022.02/bin/../lib/gcc/arm-none-eabi/11.2.1/thumb/v7e-m+fp/hard\libc.a(lib_a-strlcpy.o)
 .debug_loclists
                0x00000000      0x17b d:/11.2 2022.02/bin/../lib/gcc/arm-none-eabi/11.2.1/thumb/v7e-m+fp/hard\libc.a(lib_a-strlcpy.o)
 .debug_aranges
                0x00000000       0x20 d:/11.2 2022.02/bin/../lib/gcc/arm-none-eabi/11.2.1/thumb/v7e-m+fp/hard\libc.a(lib_a-strlcpy.o)
 .debug_rnglists
                0x00000000       0x13 d:/11.2 2022.02/bin/../lib/gcc/arm-none-eabi/11.2.1/thumb/v7e-m+fp/hard\libc.a(lib_a-strlcpy.o)
 .debug_line    0x00000000      0x1fa d:/11.2 2022.02/bin/../lib/gcc/arm-none-eabi/11.2.1/thumb/v7e-m+fp/hard\libc.a(lib_a-strlcpy.o)
 .debug_str     0x00000000      0x215 d:/11.2 2022.02/bin/../lib/gcc/arm-none-eabi/11.2.1/thumb/v7e-m+fp/hard\libc.a(lib_a-strlcpy.o)
 .comment       0x00000000       0x58 d:/11.2 2022.02/bin/../lib/gcc/arm-none-eabi/11.2.1/thumb/v7e-m+fp/hard\libc.a(lib_a-strlcpy.o)
 .debug_frame   0x00000000       0x34 d:/11.2 2022.02/bin/../lib/gcc/arm-none-eabi/11.2.1/thumb/v7e-m+fp/hard\libc.a(lib_a-strlcpy.o)
 .ARM.attributes
                0x00000000       0x34 d:/11.2 2022.02/bin/../lib/gcc/arm-none-eabi/11.2.1/thumb/v7e-m+fp/hard\libc.a(lib_a-strlcpy.o)
 .text          0x00000000        0x0 d:/11.2 2022.02/bin/../lib/gcc/arm-none-eabi/11.2.1/thumb/v7e-m+fp/hard\libc.a(lib_a-strncasecmp.o)
 .data          0x00000000        0x0 d:/11.2 2022.02/bin/../lib/gcc/arm-none-eabi/11.2.1/thumb/v7e-m+fp/hard\libc.a(lib_a-strncasecmp.o)
 .bss           0x00000000        0x0 d:/11.2 2022.02/bin/../lib/gcc/arm-none-eabi/11.2.1/thumb/v7e-m+fp/hard\libc.a(lib_a-strncasecmp.o)
 .text.strncasecmp
                0x00000000       0x5c d:/11.2 2022.02/bin/../lib/gcc/arm-none-eabi/11.2.1/thumb/v7e-m+fp/hard\libc.a(lib_a-strncasecmp.o)
 .debug_info    0x00000000      0x174 d:/11.2 2022.02/bin/../lib/gcc/arm-none-eabi/11.2.1/thumb/v7e-m+fp/hard\libc.a(lib_a-strncasecmp.o)
 .debug_abbrev  0x00000000       0xc1 d:/11.2 2022.02/bin/../lib/gcc/arm-none-eabi/11.2.1/thumb/v7e-m+fp/hard\libc.a(lib_a-strncasecmp.o)
 .debug_loclists
                0x00000000      0x271 d:/11.2 2022.02/bin/../lib/gcc/arm-none-eabi/11.2.1/thumb/v7e-m+fp/hard\libc.a(lib_a-strncasecmp.o)
 .debug_aranges
                0x00000000       0x20 d:/11.2 2022.02/bin/../lib/gcc/arm-none-eabi/11.2.1/thumb/v7e-m+fp/hard\libc.a(lib_a-strncasecmp.o)
 .debug_rnglists
                0x00000000       0x49 d:/11.2 2022.02/bin/../lib/gcc/arm-none-eabi/11.2.1/thumb/v7e-m+fp/hard\libc.a(lib_a-strncasecmp.o)
 .debug_line    0x00000000      0x1fb d:/11.2 2022.02/bin/../lib/gcc/arm-none-eabi/11.2.1/thumb/v7e-m+fp/hard\libc.a(lib_a-strncasecmp.o)
 .debug_str     0x00000000      0x225 d:/11.2 2022.02/bin/../lib/gcc/arm-none-eabi/11.2.1/thumb/v7e-m+fp/hard\libc.a(lib_a-strncasecmp.o)
 .comment       0x00000000       0x58 d:/11.2 2022.02/bin/../lib/gcc/arm-none-eabi/11.2.1/thumb/v7e-m+fp/hard\libc.a(lib_a-strncasecmp.o)
 .debug_frame   0x00000000       0x30 d:/11.2 2022.02/bin/../lib/gcc/arm-none-eabi/11.2.1/thumb/v7e-m+fp/hard\libc.a(lib_a-strncasecmp.o)
 .ARM.attributes
                0x00000000       0x34 d:/11.2 2022.02/bin/../lib/gcc/arm-none-eabi/11.2.1/thumb/v7e-m+fp/hard\libc.a(lib_a-strncasecmp.o)
 .text          0x00000000        0x0 d:/11.2 2022.02/bin/../lib/gcc/arm-none-eabi/11.2.1/thumb/v7e-m+fp/hard\libc.a(lib_a-strncpy.o)
 .data          0x00000000        0x0 d:/11.2 2022.02/bin/../lib/gcc/arm-none-eabi/11.2.1/thumb/v7e-m+fp/hard\libc.a(lib_a-strncpy.o)
 .bss           0x00000000        0x0 d:/11.2 2022.02/bin/../lib/gcc/arm-none-eabi/11.2.1/thumb/v7e-m+fp/hard\libc.a(lib_a-strncpy.o)
 .text          0x00000000        0x0 d:/11.2 2022.02/bin/../lib/gcc/arm-none-eabi/11.2.1/thumb/v7e-m+fp/hard\libc.a(lib_a-strtol.o)
 .data          0x00000000        0x0 d:/11.2 2022.02/bin/../lib/gcc/arm-none-eabi/11.2.1/thumb/v7e-m+fp/hard\libc.a(lib_a-strtol.o)
 .bss           0x00000000        0x0 d:/11.2 2022.02/bin/../lib/gcc/arm-none-eabi/11.2.1/thumb/v7e-m+fp/hard\libc.a(lib_a-strtol.o)
 .text._strtol_l.constprop.0
                0x00000000      0x144 d:/11.2 2022.02/bin/../lib/gcc/arm-none-eabi/11.2.1/thumb/v7e-m+fp/hard\libc.a(lib_a-strtol.o)
 .text._strtol_r
                0x00000000        0x4 d:/11.2 2022.02/bin/../lib/gcc/arm-none-eabi/11.2.1/thumb/v7e-m+fp/hard\libc.a(lib_a-strtol.o)
 .text.strtol_l
                0x00000000       0x1c d:/11.2 2022.02/bin/../lib/gcc/arm-none-eabi/11.2.1/thumb/v7e-m+fp/hard\libc.a(lib_a-strtol.o)
 .text.strtol   0x00000000       0x1c d:/11.2 2022.02/bin/../lib/gcc/arm-none-eabi/11.2.1/thumb/v7e-m+fp/hard\libc.a(lib_a-strtol.o)
 .debug_info    0x00000000      0xef8 d:/11.2 2022.02/bin/../lib/gcc/arm-none-eabi/11.2.1/thumb/v7e-m+fp/hard\libc.a(lib_a-strtol.o)
 .debug_abbrev  0x00000000      0x333 d:/11.2 2022.02/bin/../lib/gcc/arm-none-eabi/11.2.1/thumb/v7e-m+fp/hard\libc.a(lib_a-strtol.o)
 .debug_loclists
                0x00000000      0x589 d:/11.2 2022.02/bin/../lib/gcc/arm-none-eabi/11.2.1/thumb/v7e-m+fp/hard\libc.a(lib_a-strtol.o)
 .debug_aranges
                0x00000000       0x38 d:/11.2 2022.02/bin/../lib/gcc/arm-none-eabi/11.2.1/thumb/v7e-m+fp/hard\libc.a(lib_a-strtol.o)
 .debug_rnglists
                0x00000000       0x39 d:/11.2 2022.02/bin/../lib/gcc/arm-none-eabi/11.2.1/thumb/v7e-m+fp/hard\libc.a(lib_a-strtol.o)
 .debug_line    0x00000000      0x4a8 d:/11.2 2022.02/bin/../lib/gcc/arm-none-eabi/11.2.1/thumb/v7e-m+fp/hard\libc.a(lib_a-strtol.o)
 .debug_str     0x00000000      0x85e d:/11.2 2022.02/bin/../lib/gcc/arm-none-eabi/11.2.1/thumb/v7e-m+fp/hard\libc.a(lib_a-strtol.o)
 .comment       0x00000000       0x58 d:/11.2 2022.02/bin/../lib/gcc/arm-none-eabi/11.2.1/thumb/v7e-m+fp/hard\libc.a(lib_a-strtol.o)
 .debug_frame   0x00000000       0x80 d:/11.2 2022.02/bin/../lib/gcc/arm-none-eabi/11.2.1/thumb/v7e-m+fp/hard\libc.a(lib_a-strtol.o)
 .ARM.attributes
                0x00000000       0x34 d:/11.2 2022.02/bin/../lib/gcc/arm-none-eabi/11.2.1/thumb/v7e-m+fp/hard\libc.a(lib_a-strtol.o)
 .text          0x00000000        0x0 d:/11.2 2022.02/bin/../lib/gcc/arm-none-eabi/11.2.1/thumb/v7e-m+fp/hard\libc.a(lib_a-svfiprintf.o)
 .data          0x00000000        0x0 d:/11.2 2022.02/bin/../lib/gcc/arm-none-eabi/11.2.1/thumb/v7e-m+fp/hard\libc.a(lib_a-svfiprintf.o)
 .bss           0x00000000        0x0 d:/11.2 2022.02/bin/../lib/gcc/arm-none-eabi/11.2.1/thumb/v7e-m+fp/hard\libc.a(lib_a-svfiprintf.o)
 .rodata._svfiprintf_r.str1.4
                0x00000000       0x2f d:/11.2 2022.02/bin/../lib/gcc/arm-none-eabi/11.2.1/thumb/v7e-m+fp/hard\libc.a(lib_a-svfiprintf.o)
 .text._svfiprintf_r
                0x00000000      0xd18 d:/11.2 2022.02/bin/../lib/gcc/arm-none-eabi/11.2.1/thumb/v7e-m+fp/hard\libc.a(lib_a-svfiprintf.o)
 .rodata.blanks.1
                0x00000000       0x10 d:/11.2 2022.02/bin/../lib/gcc/arm-none-eabi/11.2.1/thumb/v7e-m+fp/hard\libc.a(lib_a-svfiprintf.o)
 .rodata.zeroes.0
                0x00000000       0x10 d:/11.2 2022.02/bin/../lib/gcc/arm-none-eabi/11.2.1/thumb/v7e-m+fp/hard\libc.a(lib_a-svfiprintf.o)
 .text          0x00000000        0x0 d:/11.2 2022.02/bin/../lib/gcc/arm-none-eabi/11.2.1/thumb/v7e-m+fp/hard\libc.a(lib_a-wcsnrtombs.o)
 .data          0x00000000        0x0 d:/11.2 2022.02/bin/../lib/gcc/arm-none-eabi/11.2.1/thumb/v7e-m+fp/hard\libc.a(lib_a-wcsnrtombs.o)
 .bss           0x00000000        0x0 d:/11.2 2022.02/bin/../lib/gcc/arm-none-eabi/11.2.1/thumb/v7e-m+fp/hard\libc.a(lib_a-wcsnrtombs.o)
 .text.wcsnrtombs
                0x00000000       0x2c d:/11.2 2022.02/bin/../lib/gcc/arm-none-eabi/11.2.1/thumb/v7e-m+fp/hard\libc.a(lib_a-wcsnrtombs.o)
 .text          0x00000000        0x0 d:/11.2 2022.02/bin/../lib/gcc/arm-none-eabi/11.2.1/thumb/v7e-m+fp/hard\libc.a(lib_a-wctomb_r.o)
 .data          0x00000000        0x0 d:/11.2 2022.02/bin/../lib/gcc/arm-none-eabi/11.2.1/thumb/v7e-m+fp/hard\libc.a(lib_a-wctomb_r.o)
 .bss           0x00000000        0x0 d:/11.2 2022.02/bin/../lib/gcc/arm-none-eabi/11.2.1/thumb/v7e-m+fp/hard\libc.a(lib_a-wctomb_r.o)
 .text._wctomb_r
                0x00000000       0x14 d:/11.2 2022.02/bin/../lib/gcc/arm-none-eabi/11.2.1/thumb/v7e-m+fp/hard\libc.a(lib_a-wctomb_r.o)
 .text.__utf8_wctomb
                0x00000000       0xa0 d:/11.2 2022.02/bin/../lib/gcc/arm-none-eabi/11.2.1/thumb/v7e-m+fp/hard\libc.a(lib_a-wctomb_r.o)
 .text.__sjis_wctomb
                0x00000000       0x58 d:/11.2 2022.02/bin/../lib/gcc/arm-none-eabi/11.2.1/thumb/v7e-m+fp/hard\libc.a(lib_a-wctomb_r.o)
 .text.__eucjp_wctomb
                0x00000000       0x7c d:/11.2 2022.02/bin/../lib/gcc/arm-none-eabi/11.2.1/thumb/v7e-m+fp/hard\libc.a(lib_a-wctomb_r.o)
 .text.__jis_wctomb
                0x00000000       0x7c d:/11.2 2022.02/bin/../lib/gcc/arm-none-eabi/11.2.1/thumb/v7e-m+fp/hard\libc.a(lib_a-wctomb_r.o)
 .text          0x00000000        0x0 d:/11.2 2022.02/bin/../lib/gcc/arm-none-eabi/11.2.1/thumb/v7e-m+fp/hard\libc.a(lib_a-assert.o)
 .data          0x00000000        0x0 d:/11.2 2022.02/bin/../lib/gcc/arm-none-eabi/11.2.1/thumb/v7e-m+fp/hard\libc.a(lib_a-assert.o)
 .bss           0x00000000        0x0 d:/11.2 2022.02/bin/../lib/gcc/arm-none-eabi/11.2.1/thumb/v7e-m+fp/hard\libc.a(lib_a-assert.o)
 .text.__assert
                0x00000000        0xc d:/11.2 2022.02/bin/../lib/gcc/arm-none-eabi/11.2.1/thumb/v7e-m+fp/hard\libc.a(lib_a-assert.o)
 .text          0x00000000        0x0 d:/11.2 2022.02/bin/../lib/gcc/arm-none-eabi/11.2.1/thumb/v7e-m+fp/hard\libc.a(lib_a-callocr.o)
 .data          0x00000000        0x0 d:/11.2 2022.02/bin/../lib/gcc/arm-none-eabi/11.2.1/thumb/v7e-m+fp/hard\libc.a(lib_a-callocr.o)
 .bss           0x00000000        0x0 d:/11.2 2022.02/bin/../lib/gcc/arm-none-eabi/11.2.1/thumb/v7e-m+fp/hard\libc.a(lib_a-callocr.o)
 .text          0x00000000        0x0 d:/11.2 2022.02/bin/../lib/gcc/arm-none-eabi/11.2.1/thumb/v7e-m+fp/hard\libc.a(lib_a-ctype_.o)
 .data          0x00000000        0x0 d:/11.2 2022.02/bin/../lib/gcc/arm-none-eabi/11.2.1/thumb/v7e-m+fp/hard\libc.a(lib_a-ctype_.o)
 .bss           0x00000000        0x0 d:/11.2 2022.02/bin/../lib/gcc/arm-none-eabi/11.2.1/thumb/v7e-m+fp/hard\libc.a(lib_a-ctype_.o)
 .text.__set_ctype
                0x00000000        0xc d:/11.2 2022.02/bin/../lib/gcc/arm-none-eabi/11.2.1/thumb/v7e-m+fp/hard\libc.a(lib_a-ctype_.o)
 .text          0x00000000        0x0 d:/11.2 2022.02/bin/../lib/gcc/arm-none-eabi/11.2.1/thumb/v7e-m+fp/hard\libc.a(lib_a-errno.o)
 .data          0x00000000        0x0 d:/11.2 2022.02/bin/../lib/gcc/arm-none-eabi/11.2.1/thumb/v7e-m+fp/hard\libc.a(lib_a-errno.o)
 .bss           0x00000000        0x0 d:/11.2 2022.02/bin/../lib/gcc/arm-none-eabi/11.2.1/thumb/v7e-m+fp/hard\libc.a(lib_a-errno.o)
 .text          0x00000000        0x0 d:/11.2 2022.02/bin/../lib/gcc/arm-none-eabi/11.2.1/thumb/v7e-m+fp/hard\libc.a(lib_a-fiprintf.o)
 .data          0x00000000        0x0 d:/11.2 2022.02/bin/../lib/gcc/arm-none-eabi/11.2.1/thumb/v7e-m+fp/hard\libc.a(lib_a-fiprintf.o)
 .bss           0x00000000        0x0 d:/11.2 2022.02/bin/../lib/gcc/arm-none-eabi/11.2.1/thumb/v7e-m+fp/hard\libc.a(lib_a-fiprintf.o)
 .text._fiprintf_r
                0x00000000       0x1c d:/11.2 2022.02/bin/../lib/gcc/arm-none-eabi/11.2.1/thumb/v7e-m+fp/hard\libc.a(lib_a-fiprintf.o)
 .text          0x00000000        0x0 d:/11.2 2022.02/bin/../lib/gcc/arm-none-eabi/11.2.1/thumb/v7e-m+fp/hard\libc.a(lib_a-getenv_r.o)
 .data          0x00000000        0x0 d:/11.2 2022.02/bin/../lib/gcc/arm-none-eabi/11.2.1/thumb/v7e-m+fp/hard\libc.a(lib_a-getenv_r.o)
 .bss           0x00000000        0x0 d:/11.2 2022.02/bin/../lib/gcc/arm-none-eabi/11.2.1/thumb/v7e-m+fp/hard\libc.a(lib_a-getenv_r.o)
 .text._findenv_r
                0x00000000       0x80 d:/11.2 2022.02/bin/../lib/gcc/arm-none-eabi/11.2.1/thumb/v7e-m+fp/hard\libc.a(lib_a-getenv_r.o)
 .text._getenv_r
                0x00000000       0x10 d:/11.2 2022.02/bin/../lib/gcc/arm-none-eabi/11.2.1/thumb/v7e-m+fp/hard\libc.a(lib_a-getenv_r.o)
 .debug_info    0x00000000      0xa32 d:/11.2 2022.02/bin/../lib/gcc/arm-none-eabi/11.2.1/thumb/v7e-m+fp/hard\libc.a(lib_a-getenv_r.o)
 .debug_abbrev  0x00000000      0x276 d:/11.2 2022.02/bin/../lib/gcc/arm-none-eabi/11.2.1/thumb/v7e-m+fp/hard\libc.a(lib_a-getenv_r.o)
 .debug_loclists
                0x00000000      0x108 d:/11.2 2022.02/bin/../lib/gcc/arm-none-eabi/11.2.1/thumb/v7e-m+fp/hard\libc.a(lib_a-getenv_r.o)
 .debug_aranges
                0x00000000       0x28 d:/11.2 2022.02/bin/../lib/gcc/arm-none-eabi/11.2.1/thumb/v7e-m+fp/hard\libc.a(lib_a-getenv_r.o)
 .debug_rnglists
                0x00000000       0x1a d:/11.2 2022.02/bin/../lib/gcc/arm-none-eabi/11.2.1/thumb/v7e-m+fp/hard\libc.a(lib_a-getenv_r.o)
 .debug_line    0x00000000      0x2bc d:/11.2 2022.02/bin/../lib/gcc/arm-none-eabi/11.2.1/thumb/v7e-m+fp/hard\libc.a(lib_a-getenv_r.o)
 .debug_str     0x00000000      0x62b d:/11.2 2022.02/bin/../lib/gcc/arm-none-eabi/11.2.1/thumb/v7e-m+fp/hard\libc.a(lib_a-getenv_r.o)
 .comment       0x00000000       0x58 d:/11.2 2022.02/bin/../lib/gcc/arm-none-eabi/11.2.1/thumb/v7e-m+fp/hard\libc.a(lib_a-getenv_r.o)
 .debug_frame   0x00000000       0x50 d:/11.2 2022.02/bin/../lib/gcc/arm-none-eabi/11.2.1/thumb/v7e-m+fp/hard\libc.a(lib_a-getenv_r.o)
 .ARM.attributes
                0x00000000       0x34 d:/11.2 2022.02/bin/../lib/gcc/arm-none-eabi/11.2.1/thumb/v7e-m+fp/hard\libc.a(lib_a-getenv_r.o)
 .text          0x00000000        0x0 d:/11.2 2022.02/bin/../lib/gcc/arm-none-eabi/11.2.1/thumb/v7e-m+fp/hard\libc.a(lib_a-memmove.o)
 .data          0x00000000        0x0 d:/11.2 2022.02/bin/../lib/gcc/arm-none-eabi/11.2.1/thumb/v7e-m+fp/hard\libc.a(lib_a-memmove.o)
 .bss           0x00000000        0x0 d:/11.2 2022.02/bin/../lib/gcc/arm-none-eabi/11.2.1/thumb/v7e-m+fp/hard\libc.a(lib_a-memmove.o)
 .text          0x00000000        0x0 d:/11.2 2022.02/bin/../lib/gcc/arm-none-eabi/11.2.1/thumb/v7e-m+fp/hard\libc.a(lib_a-reallocr.o)
 .data          0x00000000        0x0 d:/11.2 2022.02/bin/../lib/gcc/arm-none-eabi/11.2.1/thumb/v7e-m+fp/hard\libc.a(lib_a-reallocr.o)
 .bss           0x00000000        0x0 d:/11.2 2022.02/bin/../lib/gcc/arm-none-eabi/11.2.1/thumb/v7e-m+fp/hard\libc.a(lib_a-reallocr.o)
 .text          0x00000000        0x0 d:/11.2 2022.02/bin/../lib/gcc/arm-none-eabi/11.2.1/thumb/v7e-m+fp/hard\libc.a(lib_a-reent.o)
 .data          0x00000000        0x0 d:/11.2 2022.02/bin/../lib/gcc/arm-none-eabi/11.2.1/thumb/v7e-m+fp/hard\libc.a(lib_a-reent.o)
 .bss           0x00000000        0x0 d:/11.2 2022.02/bin/../lib/gcc/arm-none-eabi/11.2.1/thumb/v7e-m+fp/hard\libc.a(lib_a-reent.o)
 .text.cleanup_glue
                0x00000000       0x48 d:/11.2 2022.02/bin/../lib/gcc/arm-none-eabi/11.2.1/thumb/v7e-m+fp/hard\libc.a(lib_a-reent.o)
 .text._reclaim_reent
                0x00000000       0x90 d:/11.2 2022.02/bin/../lib/gcc/arm-none-eabi/11.2.1/thumb/v7e-m+fp/hard\libc.a(lib_a-reent.o)
 .text          0x00000000        0x0 d:/11.2 2022.02/bin/../lib/gcc/arm-none-eabi/11.2.1/thumb/v7e-m+fp/hard\libc.a(lib_a-strncmp.o)
 .data          0x00000000        0x0 d:/11.2 2022.02/bin/../lib/gcc/arm-none-eabi/11.2.1/thumb/v7e-m+fp/hard\libc.a(lib_a-strncmp.o)
 .bss           0x00000000        0x0 d:/11.2 2022.02/bin/../lib/gcc/arm-none-eabi/11.2.1/thumb/v7e-m+fp/hard\libc.a(lib_a-strncmp.o)
 .text.strncmp  0x00000000       0x8c d:/11.2 2022.02/bin/../lib/gcc/arm-none-eabi/11.2.1/thumb/v7e-m+fp/hard\libc.a(lib_a-strncmp.o)
 .debug_info    0x00000000      0x108 d:/11.2 2022.02/bin/../lib/gcc/arm-none-eabi/11.2.1/thumb/v7e-m+fp/hard\libc.a(lib_a-strncmp.o)
 .debug_abbrev  0x00000000       0x92 d:/11.2 2022.02/bin/../lib/gcc/arm-none-eabi/11.2.1/thumb/v7e-m+fp/hard\libc.a(lib_a-strncmp.o)
 .debug_loclists
                0x00000000      0x120 d:/11.2 2022.02/bin/../lib/gcc/arm-none-eabi/11.2.1/thumb/v7e-m+fp/hard\libc.a(lib_a-strncmp.o)
 .debug_aranges
                0x00000000       0x20 d:/11.2 2022.02/bin/../lib/gcc/arm-none-eabi/11.2.1/thumb/v7e-m+fp/hard\libc.a(lib_a-strncmp.o)
 .debug_rnglists
                0x00000000       0x14 d:/11.2 2022.02/bin/../lib/gcc/arm-none-eabi/11.2.1/thumb/v7e-m+fp/hard\libc.a(lib_a-strncmp.o)
 .debug_line    0x00000000      0x261 d:/11.2 2022.02/bin/../lib/gcc/arm-none-eabi/11.2.1/thumb/v7e-m+fp/hard\libc.a(lib_a-strncmp.o)
 .debug_str     0x00000000      0x215 d:/11.2 2022.02/bin/../lib/gcc/arm-none-eabi/11.2.1/thumb/v7e-m+fp/hard\libc.a(lib_a-strncmp.o)
 .comment       0x00000000       0x58 d:/11.2 2022.02/bin/../lib/gcc/arm-none-eabi/11.2.1/thumb/v7e-m+fp/hard\libc.a(lib_a-strncmp.o)
 .debug_frame   0x00000000       0x38 d:/11.2 2022.02/bin/../lib/gcc/arm-none-eabi/11.2.1/thumb/v7e-m+fp/hard\libc.a(lib_a-strncmp.o)
 .ARM.attributes
                0x00000000       0x34 d:/11.2 2022.02/bin/../lib/gcc/arm-none-eabi/11.2.1/thumb/v7e-m+fp/hard\libc.a(lib_a-strncmp.o)
 .text          0x00000000        0x0 d:/11.2 2022.02/bin/../lib/gcc/arm-none-eabi/11.2.1/thumb/v7e-m+fp/hard\libc.a(lib_a-vfiprintf.o)
 .data          0x00000000        0x0 d:/11.2 2022.02/bin/../lib/gcc/arm-none-eabi/11.2.1/thumb/v7e-m+fp/hard\libc.a(lib_a-vfiprintf.o)
 .bss           0x00000000        0x0 d:/11.2 2022.02/bin/../lib/gcc/arm-none-eabi/11.2.1/thumb/v7e-m+fp/hard\libc.a(lib_a-vfiprintf.o)
 .text.__sprint_r
                0x00000000       0x18 d:/11.2 2022.02/bin/../lib/gcc/arm-none-eabi/11.2.1/thumb/v7e-m+fp/hard\libc.a(lib_a-vfiprintf.o)
 .text.vfiprintf
                0x00000000       0x1c d:/11.2 2022.02/bin/../lib/gcc/arm-none-eabi/11.2.1/thumb/v7e-m+fp/hard\libc.a(lib_a-vfiprintf.o)
 .text          0x00000000        0x0 d:/11.2 2022.02/bin/../lib/gcc/arm-none-eabi/11.2.1/thumb/v7e-m+fp/hard\libc.a(lib_a-wsetup.o)
 .data          0x00000000        0x0 d:/11.2 2022.02/bin/../lib/gcc/arm-none-eabi/11.2.1/thumb/v7e-m+fp/hard\libc.a(lib_a-wsetup.o)
 .bss           0x00000000        0x0 d:/11.2 2022.02/bin/../lib/gcc/arm-none-eabi/11.2.1/thumb/v7e-m+fp/hard\libc.a(lib_a-wsetup.o)
 .text          0x00000000        0x0 d:/11.2 2022.02/bin/../lib/gcc/arm-none-eabi/11.2.1/thumb/v7e-m+fp/hard\libc.a(lib_a-abort.o)
 .data          0x00000000        0x0 d:/11.2 2022.02/bin/../lib/gcc/arm-none-eabi/11.2.1/thumb/v7e-m+fp/hard\libc.a(lib_a-abort.o)
 .bss           0x00000000        0x0 d:/11.2 2022.02/bin/../lib/gcc/arm-none-eabi/11.2.1/thumb/v7e-m+fp/hard\libc.a(lib_a-abort.o)
 .text          0x00000000        0x0 d:/11.2 2022.02/bin/../lib/gcc/arm-none-eabi/11.2.1/thumb/v7e-m+fp/hard\libc.a(lib_a-environ.o)
 .data          0x00000000        0x0 d:/11.2 2022.02/bin/../lib/gcc/arm-none-eabi/11.2.1/thumb/v7e-m+fp/hard\libc.a(lib_a-environ.o)
 .bss           0x00000000        0x0 d:/11.2 2022.02/bin/../lib/gcc/arm-none-eabi/11.2.1/thumb/v7e-m+fp/hard\libc.a(lib_a-environ.o)
 .bss.initial_env
                0x00000000        0x4 d:/11.2 2022.02/bin/../lib/gcc/arm-none-eabi/11.2.1/thumb/v7e-m+fp/hard\libc.a(lib_a-environ.o)
 .data.environ  0x00000000        0x4 d:/11.2 2022.02/bin/../lib/gcc/arm-none-eabi/11.2.1/thumb/v7e-m+fp/hard\libc.a(lib_a-environ.o)
 .debug_info    0x00000000       0x6b d:/11.2 2022.02/bin/../lib/gcc/arm-none-eabi/11.2.1/thumb/v7e-m+fp/hard\libc.a(lib_a-environ.o)
 .debug_abbrev  0x00000000       0x5b d:/11.2 2022.02/bin/../lib/gcc/arm-none-eabi/11.2.1/thumb/v7e-m+fp/hard\libc.a(lib_a-environ.o)
 .debug_aranges
                0x00000000       0x18 d:/11.2 2022.02/bin/../lib/gcc/arm-none-eabi/11.2.1/thumb/v7e-m+fp/hard\libc.a(lib_a-environ.o)
 .debug_line    0x00000000       0x7c d:/11.2 2022.02/bin/../lib/gcc/arm-none-eabi/11.2.1/thumb/v7e-m+fp/hard\libc.a(lib_a-environ.o)
 .debug_str     0x00000000      0x197 d:/11.2 2022.02/bin/../lib/gcc/arm-none-eabi/11.2.1/thumb/v7e-m+fp/hard\libc.a(lib_a-environ.o)
 .comment       0x00000000       0x58 d:/11.2 2022.02/bin/../lib/gcc/arm-none-eabi/11.2.1/thumb/v7e-m+fp/hard\libc.a(lib_a-environ.o)
 .ARM.attributes
                0x00000000       0x34 d:/11.2 2022.02/bin/../lib/gcc/arm-none-eabi/11.2.1/thumb/v7e-m+fp/hard\libc.a(lib_a-environ.o)
 .text          0x00000000        0x0 d:/11.2 2022.02/bin/../lib/gcc/arm-none-eabi/11.2.1/thumb/v7e-m+fp/hard\libc.a(lib_a-envlock.o)
 .data          0x00000000        0x0 d:/11.2 2022.02/bin/../lib/gcc/arm-none-eabi/11.2.1/thumb/v7e-m+fp/hard\libc.a(lib_a-envlock.o)
 .bss           0x00000000        0x0 d:/11.2 2022.02/bin/../lib/gcc/arm-none-eabi/11.2.1/thumb/v7e-m+fp/hard\libc.a(lib_a-envlock.o)
 .text.__env_lock
                0x00000000        0x4 d:/11.2 2022.02/bin/../lib/gcc/arm-none-eabi/11.2.1/thumb/v7e-m+fp/hard\libc.a(lib_a-envlock.o)
 .text.__env_unlock
                0x00000000        0x4 d:/11.2 2022.02/bin/../lib/gcc/arm-none-eabi/11.2.1/thumb/v7e-m+fp/hard\libc.a(lib_a-envlock.o)
 .debug_info    0x00000000      0x8d4 d:/11.2 2022.02/bin/../lib/gcc/arm-none-eabi/11.2.1/thumb/v7e-m+fp/hard\libc.a(lib_a-envlock.o)
 .debug_abbrev  0x00000000      0x202 d:/11.2 2022.02/bin/../lib/gcc/arm-none-eabi/11.2.1/thumb/v7e-m+fp/hard\libc.a(lib_a-envlock.o)
 .debug_aranges
                0x00000000       0x20 d:/11.2 2022.02/bin/../lib/gcc/arm-none-eabi/11.2.1/thumb/v7e-m+fp/hard\libc.a(lib_a-envlock.o)
 .debug_rnglists
                0x00000000       0x13 d:/11.2 2022.02/bin/../lib/gcc/arm-none-eabi/11.2.1/thumb/v7e-m+fp/hard\libc.a(lib_a-envlock.o)
 .debug_line    0x00000000      0x1d5 d:/11.2 2022.02/bin/../lib/gcc/arm-none-eabi/11.2.1/thumb/v7e-m+fp/hard\libc.a(lib_a-envlock.o)
 .debug_str     0x00000000      0x5f4 d:/11.2 2022.02/bin/../lib/gcc/arm-none-eabi/11.2.1/thumb/v7e-m+fp/hard\libc.a(lib_a-envlock.o)
 .comment       0x00000000       0x58 d:/11.2 2022.02/bin/../lib/gcc/arm-none-eabi/11.2.1/thumb/v7e-m+fp/hard\libc.a(lib_a-envlock.o)
 .debug_frame   0x00000000       0x30 d:/11.2 2022.02/bin/../lib/gcc/arm-none-eabi/11.2.1/thumb/v7e-m+fp/hard\libc.a(lib_a-envlock.o)
 .ARM.attributes
                0x00000000       0x34 d:/11.2 2022.02/bin/../lib/gcc/arm-none-eabi/11.2.1/thumb/v7e-m+fp/hard\libc.a(lib_a-envlock.o)
 .text          0x00000000        0x0 d:/11.2 2022.02/bin/../lib/gcc/arm-none-eabi/11.2.1/thumb/v7e-m+fp/hard\libc.a(lib_a-fflush.o)
 .data          0x00000000        0x0 d:/11.2 2022.02/bin/../lib/gcc/arm-none-eabi/11.2.1/thumb/v7e-m+fp/hard\libc.a(lib_a-fflush.o)
 .bss           0x00000000        0x0 d:/11.2 2022.02/bin/../lib/gcc/arm-none-eabi/11.2.1/thumb/v7e-m+fp/hard\libc.a(lib_a-fflush.o)
 .text.fflush   0x00000000       0x50 d:/11.2 2022.02/bin/../lib/gcc/arm-none-eabi/11.2.1/thumb/v7e-m+fp/hard\libc.a(lib_a-fflush.o)
 .text          0x00000000        0x0 d:/11.2 2022.02/bin/../lib/gcc/arm-none-eabi/11.2.1/thumb/v7e-m+fp/hard\libc.a(lib_a-findfp.o)
 .data          0x00000000        0x0 d:/11.2 2022.02/bin/../lib/gcc/arm-none-eabi/11.2.1/thumb/v7e-m+fp/hard\libc.a(lib_a-findfp.o)
 .bss           0x00000000        0x0 d:/11.2 2022.02/bin/../lib/gcc/arm-none-eabi/11.2.1/thumb/v7e-m+fp/hard\libc.a(lib_a-findfp.o)
 .text.__fp_lock
                0x00000000        0x4 d:/11.2 2022.02/bin/../lib/gcc/arm-none-eabi/11.2.1/thumb/v7e-m+fp/hard\libc.a(lib_a-findfp.o)
 .text.__fp_unlock
                0x00000000        0x4 d:/11.2 2022.02/bin/../lib/gcc/arm-none-eabi/11.2.1/thumb/v7e-m+fp/hard\libc.a(lib_a-findfp.o)
 .text.__sfmoreglue
                0x00000000       0x30 d:/11.2 2022.02/bin/../lib/gcc/arm-none-eabi/11.2.1/thumb/v7e-m+fp/hard\libc.a(lib_a-findfp.o)
 .text.__sfp    0x00000000       0xa8 d:/11.2 2022.02/bin/../lib/gcc/arm-none-eabi/11.2.1/thumb/v7e-m+fp/hard\libc.a(lib_a-findfp.o)
 .text._cleanup
                0x00000000       0x14 d:/11.2 2022.02/bin/../lib/gcc/arm-none-eabi/11.2.1/thumb/v7e-m+fp/hard\libc.a(lib_a-findfp.o)
 .text.__sinit_lock_acquire
                0x00000000        0x4 d:/11.2 2022.02/bin/../lib/gcc/arm-none-eabi/11.2.1/thumb/v7e-m+fp/hard\libc.a(lib_a-findfp.o)
 .text.__sinit_lock_release
                0x00000000        0x4 d:/11.2 2022.02/bin/../lib/gcc/arm-none-eabi/11.2.1/thumb/v7e-m+fp/hard\libc.a(lib_a-findfp.o)
 .text.__fp_lock_all
                0x00000000       0x14 d:/11.2 2022.02/bin/../lib/gcc/arm-none-eabi/11.2.1/thumb/v7e-m+fp/hard\libc.a(lib_a-findfp.o)
 .text.__fp_unlock_all
                0x00000000       0x14 d:/11.2 2022.02/bin/../lib/gcc/arm-none-eabi/11.2.1/thumb/v7e-m+fp/hard\libc.a(lib_a-findfp.o)
 .text          0x00000000        0x0 d:/11.2 2022.02/bin/../lib/gcc/arm-none-eabi/11.2.1/thumb/v7e-m+fp/hard\libc.a(lib_a-fputwc.o)
 .data          0x00000000        0x0 d:/11.2 2022.02/bin/../lib/gcc/arm-none-eabi/11.2.1/thumb/v7e-m+fp/hard\libc.a(lib_a-fputwc.o)
 .bss           0x00000000        0x0 d:/11.2 2022.02/bin/../lib/gcc/arm-none-eabi/11.2.1/thumb/v7e-m+fp/hard\libc.a(lib_a-fputwc.o)
 .text.fputwc   0x00000000       0x48 d:/11.2 2022.02/bin/../lib/gcc/arm-none-eabi/11.2.1/thumb/v7e-m+fp/hard\libc.a(lib_a-fputwc.o)
 .text          0x00000000        0x0 d:/11.2 2022.02/bin/../lib/gcc/arm-none-eabi/11.2.1/thumb/v7e-m+fp/hard\libc.a(lib_a-fvwrite.o)
 .data          0x00000000        0x0 d:/11.2 2022.02/bin/../lib/gcc/arm-none-eabi/11.2.1/thumb/v7e-m+fp/hard\libc.a(lib_a-fvwrite.o)
 .bss           0x00000000        0x0 d:/11.2 2022.02/bin/../lib/gcc/arm-none-eabi/11.2.1/thumb/v7e-m+fp/hard\libc.a(lib_a-fvwrite.o)
 .text          0x00000000        0x0 d:/11.2 2022.02/bin/../lib/gcc/arm-none-eabi/11.2.1/thumb/v7e-m+fp/hard\libc.a(lib_a-fwalk.o)
 .data          0x00000000        0x0 d:/11.2 2022.02/bin/../lib/gcc/arm-none-eabi/11.2.1/thumb/v7e-m+fp/hard\libc.a(lib_a-fwalk.o)
 .bss           0x00000000        0x0 d:/11.2 2022.02/bin/../lib/gcc/arm-none-eabi/11.2.1/thumb/v7e-m+fp/hard\libc.a(lib_a-fwalk.o)
 .text._fwalk   0x00000000       0x40 d:/11.2 2022.02/bin/../lib/gcc/arm-none-eabi/11.2.1/thumb/v7e-m+fp/hard\libc.a(lib_a-fwalk.o)
 .text          0x00000000        0x0 d:/11.2 2022.02/bin/../lib/gcc/arm-none-eabi/11.2.1/thumb/v7e-m+fp/hard\libc.a(lib_a-makebuf.o)
 .data          0x00000000        0x0 d:/11.2 2022.02/bin/../lib/gcc/arm-none-eabi/11.2.1/thumb/v7e-m+fp/hard\libc.a(lib_a-makebuf.o)
 .bss           0x00000000        0x0 d:/11.2 2022.02/bin/../lib/gcc/arm-none-eabi/11.2.1/thumb/v7e-m+fp/hard\libc.a(lib_a-makebuf.o)
 .text.__swhatbuf_r
                0x00000000       0x60 d:/11.2 2022.02/bin/../lib/gcc/arm-none-eabi/11.2.1/thumb/v7e-m+fp/hard\libc.a(lib_a-makebuf.o)
 .text          0x00000000        0x0 d:/11.2 2022.02/bin/../lib/gcc/arm-none-eabi/11.2.1/thumb/v7e-m+fp/hard\libc.a(lib_a-signal.o)
 .data          0x00000000        0x0 d:/11.2 2022.02/bin/../lib/gcc/arm-none-eabi/11.2.1/thumb/v7e-m+fp/hard\libc.a(lib_a-signal.o)
 .bss           0x00000000        0x0 d:/11.2 2022.02/bin/../lib/gcc/arm-none-eabi/11.2.1/thumb/v7e-m+fp/hard\libc.a(lib_a-signal.o)
 .text._init_signal_r
                0x00000000       0x30 d:/11.2 2022.02/bin/../lib/gcc/arm-none-eabi/11.2.1/thumb/v7e-m+fp/hard\libc.a(lib_a-signal.o)
 .text._signal_r
                0x00000000       0x4c d:/11.2 2022.02/bin/../lib/gcc/arm-none-eabi/11.2.1/thumb/v7e-m+fp/hard\libc.a(lib_a-signal.o)
 .text._raise_r
                0x00000000       0x58 d:/11.2 2022.02/bin/../lib/gcc/arm-none-eabi/11.2.1/thumb/v7e-m+fp/hard\libc.a(lib_a-signal.o)
 .text.__sigtramp_r
                0x00000000       0x64 d:/11.2 2022.02/bin/../lib/gcc/arm-none-eabi/11.2.1/thumb/v7e-m+fp/hard\libc.a(lib_a-signal.o)
 .text.signal   0x00000000       0x54 d:/11.2 2022.02/bin/../lib/gcc/arm-none-eabi/11.2.1/thumb/v7e-m+fp/hard\libc.a(lib_a-signal.o)
 .text._init_signal
                0x00000000       0x38 d:/11.2 2022.02/bin/../lib/gcc/arm-none-eabi/11.2.1/thumb/v7e-m+fp/hard\libc.a(lib_a-signal.o)
 .text.__sigtramp
                0x00000000       0x68 d:/11.2 2022.02/bin/../lib/gcc/arm-none-eabi/11.2.1/thumb/v7e-m+fp/hard\libc.a(lib_a-signal.o)
 .text          0x00000000        0x0 d:/11.2 2022.02/bin/../lib/gcc/arm-none-eabi/11.2.1/thumb/v7e-m+fp/hard\libc.a(lib_a-signalr.o)
 .data          0x00000000        0x0 d:/11.2 2022.02/bin/../lib/gcc/arm-none-eabi/11.2.1/thumb/v7e-m+fp/hard\libc.a(lib_a-signalr.o)
 .bss           0x00000000        0x0 d:/11.2 2022.02/bin/../lib/gcc/arm-none-eabi/11.2.1/thumb/v7e-m+fp/hard\libc.a(lib_a-signalr.o)
 .text          0x00000000        0x0 d:/11.2 2022.02/bin/../lib/gcc/arm-none-eabi/11.2.1/thumb/v7e-m+fp/hard\libc.a(lib_a-stdio.o)
 .data          0x00000000        0x0 d:/11.2 2022.02/bin/../lib/gcc/arm-none-eabi/11.2.1/thumb/v7e-m+fp/hard\libc.a(lib_a-stdio.o)
 .bss           0x00000000        0x0 d:/11.2 2022.02/bin/../lib/gcc/arm-none-eabi/11.2.1/thumb/v7e-m+fp/hard\libc.a(lib_a-stdio.o)
 .text.__seofread
                0x00000000        0x4 d:/11.2 2022.02/bin/../lib/gcc/arm-none-eabi/11.2.1/thumb/v7e-m+fp/hard\libc.a(lib_a-stdio.o)
 .text          0x00000000        0x0 d:/11.2 2022.02/bin/../lib/gcc/arm-none-eabi/11.2.1/thumb/v7e-m+fp/hard\libc.a(lib_a-wbuf.o)
 .data          0x00000000        0x0 d:/11.2 2022.02/bin/../lib/gcc/arm-none-eabi/11.2.1/thumb/v7e-m+fp/hard\libc.a(lib_a-wbuf.o)
 .bss           0x00000000        0x0 d:/11.2 2022.02/bin/../lib/gcc/arm-none-eabi/11.2.1/thumb/v7e-m+fp/hard\libc.a(lib_a-wbuf.o)
 .text.__swbuf  0x00000000       0x18 d:/11.2 2022.02/bin/../lib/gcc/arm-none-eabi/11.2.1/thumb/v7e-m+fp/hard\libc.a(lib_a-wbuf.o)
 .text          0x00000000        0x0 d:/11.2 2022.02/bin/../lib/gcc/arm-none-eabi/11.2.1/thumb/v7e-m+fp/hard\libc.a(lib_a-writer.o)
 .data          0x00000000        0x0 d:/11.2 2022.02/bin/../lib/gcc/arm-none-eabi/11.2.1/thumb/v7e-m+fp/hard\libc.a(lib_a-writer.o)
 .bss           0x00000000        0x0 d:/11.2 2022.02/bin/../lib/gcc/arm-none-eabi/11.2.1/thumb/v7e-m+fp/hard\libc.a(lib_a-writer.o)
 .text          0x00000000        0x0 d:/11.2 2022.02/bin/../lib/gcc/arm-none-eabi/11.2.1/thumb/v7e-m+fp/hard\libc.a(lib_a-closer.o)
 .data          0x00000000        0x0 d:/11.2 2022.02/bin/../lib/gcc/arm-none-eabi/11.2.1/thumb/v7e-m+fp/hard\libc.a(lib_a-closer.o)
 .bss           0x00000000        0x0 d:/11.2 2022.02/bin/../lib/gcc/arm-none-eabi/11.2.1/thumb/v7e-m+fp/hard\libc.a(lib_a-closer.o)
 .text          0x00000000        0x0 d:/11.2 2022.02/bin/../lib/gcc/arm-none-eabi/11.2.1/thumb/v7e-m+fp/hard\libc.a(lib_a-fclose.o)
 .data          0x00000000        0x0 d:/11.2 2022.02/bin/../lib/gcc/arm-none-eabi/11.2.1/thumb/v7e-m+fp/hard\libc.a(lib_a-fclose.o)
 .bss           0x00000000        0x0 d:/11.2 2022.02/bin/../lib/gcc/arm-none-eabi/11.2.1/thumb/v7e-m+fp/hard\libc.a(lib_a-fclose.o)
 .text.fclose   0x00000000       0x10 d:/11.2 2022.02/bin/../lib/gcc/arm-none-eabi/11.2.1/thumb/v7e-m+fp/hard\libc.a(lib_a-fclose.o)
 .text          0x00000000        0x0 d:/11.2 2022.02/bin/../lib/gcc/arm-none-eabi/11.2.1/thumb/v7e-m+fp/hard\libc.a(lib_a-fstatr.o)
 .data          0x00000000        0x0 d:/11.2 2022.02/bin/../lib/gcc/arm-none-eabi/11.2.1/thumb/v7e-m+fp/hard\libc.a(lib_a-fstatr.o)
 .bss           0x00000000        0x0 d:/11.2 2022.02/bin/../lib/gcc/arm-none-eabi/11.2.1/thumb/v7e-m+fp/hard\libc.a(lib_a-fstatr.o)
 .text          0x00000000        0x0 d:/11.2 2022.02/bin/../lib/gcc/arm-none-eabi/11.2.1/thumb/v7e-m+fp/hard\libc.a(lib_a-isattyr.o)
 .data          0x00000000        0x0 d:/11.2 2022.02/bin/../lib/gcc/arm-none-eabi/11.2.1/thumb/v7e-m+fp/hard\libc.a(lib_a-isattyr.o)
 .bss           0x00000000        0x0 d:/11.2 2022.02/bin/../lib/gcc/arm-none-eabi/11.2.1/thumb/v7e-m+fp/hard\libc.a(lib_a-isattyr.o)
 .text          0x00000000        0x0 d:/11.2 2022.02/bin/../lib/gcc/arm-none-eabi/11.2.1/thumb/v7e-m+fp/hard\libc.a(lib_a-lseekr.o)
 .data          0x00000000        0x0 d:/11.2 2022.02/bin/../lib/gcc/arm-none-eabi/11.2.1/thumb/v7e-m+fp/hard\libc.a(lib_a-lseekr.o)
 .bss           0x00000000        0x0 d:/11.2 2022.02/bin/../lib/gcc/arm-none-eabi/11.2.1/thumb/v7e-m+fp/hard\libc.a(lib_a-lseekr.o)
 .text          0x00000000        0x0 d:/11.2 2022.02/bin/../lib/gcc/arm-none-eabi/11.2.1/thumb/v7e-m+fp/hard\libc.a(lib_a-readr.o)
 .data          0x00000000        0x0 d:/11.2 2022.02/bin/../lib/gcc/arm-none-eabi/11.2.1/thumb/v7e-m+fp/hard\libc.a(lib_a-readr.o)
 .bss           0x00000000        0x0 d:/11.2 2022.02/bin/../lib/gcc/arm-none-eabi/11.2.1/thumb/v7e-m+fp/hard\libc.a(lib_a-readr.o)
 .text          0x00000000        0x0 d:/11.2 2022.02/bin/../lib/gcc/arm-none-eabi/11.2.1/thumb/v7e-m+fp/hard\libm.a(lib_a-s_ceil.o)
 .data          0x00000000        0x0 d:/11.2 2022.02/bin/../lib/gcc/arm-none-eabi/11.2.1/thumb/v7e-m+fp/hard\libm.a(lib_a-s_ceil.o)
 .bss           0x00000000        0x0 d:/11.2 2022.02/bin/../lib/gcc/arm-none-eabi/11.2.1/thumb/v7e-m+fp/hard\libm.a(lib_a-s_ceil.o)
 .text.ceil     0x00000000      0x110 d:/11.2 2022.02/bin/../lib/gcc/arm-none-eabi/11.2.1/thumb/v7e-m+fp/hard\libm.a(lib_a-s_ceil.o)
 .debug_info    0x00000000      0x216 d:/11.2 2022.02/bin/../lib/gcc/arm-none-eabi/11.2.1/thumb/v7e-m+fp/hard\libm.a(lib_a-s_ceil.o)
 .debug_abbrev  0x00000000      0x12a d:/11.2 2022.02/bin/../lib/gcc/arm-none-eabi/11.2.1/thumb/v7e-m+fp/hard\libm.a(lib_a-s_ceil.o)
 .debug_loclists
                0x00000000      0x199 d:/11.2 2022.02/bin/../lib/gcc/arm-none-eabi/11.2.1/thumb/v7e-m+fp/hard\libm.a(lib_a-s_ceil.o)
 .debug_aranges
                0x00000000       0x20 d:/11.2 2022.02/bin/../lib/gcc/arm-none-eabi/11.2.1/thumb/v7e-m+fp/hard\libm.a(lib_a-s_ceil.o)
 .debug_rnglists
                0x00000000       0x31 d:/11.2 2022.02/bin/../lib/gcc/arm-none-eabi/11.2.1/thumb/v7e-m+fp/hard\libm.a(lib_a-s_ceil.o)
 .debug_line    0x00000000      0x323 d:/11.2 2022.02/bin/../lib/gcc/arm-none-eabi/11.2.1/thumb/v7e-m+fp/hard\libm.a(lib_a-s_ceil.o)
 .debug_str     0x00000000      0x284 d:/11.2 2022.02/bin/../lib/gcc/arm-none-eabi/11.2.1/thumb/v7e-m+fp/hard\libm.a(lib_a-s_ceil.o)
 .comment       0x00000000       0x58 d:/11.2 2022.02/bin/../lib/gcc/arm-none-eabi/11.2.1/thumb/v7e-m+fp/hard\libm.a(lib_a-s_ceil.o)
 .debug_frame   0x00000000       0x34 d:/11.2 2022.02/bin/../lib/gcc/arm-none-eabi/11.2.1/thumb/v7e-m+fp/hard\libm.a(lib_a-s_ceil.o)
 .ARM.attributes
                0x00000000       0x34 d:/11.2 2022.02/bin/../lib/gcc/arm-none-eabi/11.2.1/thumb/v7e-m+fp/hard\libm.a(lib_a-s_ceil.o)
 .text          0x00000000        0x0 d:/11.2 2022.02/bin/../lib/gcc/arm-none-eabi/11.2.1/thumb/v7e-m+fp/hard\libm.a(lib_a-s_floor.o)
 .data          0x00000000        0x0 d:/11.2 2022.02/bin/../lib/gcc/arm-none-eabi/11.2.1/thumb/v7e-m+fp/hard\libm.a(lib_a-s_floor.o)
 .bss           0x00000000        0x0 d:/11.2 2022.02/bin/../lib/gcc/arm-none-eabi/11.2.1/thumb/v7e-m+fp/hard\libm.a(lib_a-s_floor.o)
 .text.floor    0x00000000      0x118 d:/11.2 2022.02/bin/../lib/gcc/arm-none-eabi/11.2.1/thumb/v7e-m+fp/hard\libm.a(lib_a-s_floor.o)
 .debug_info    0x00000000      0x216 d:/11.2 2022.02/bin/../lib/gcc/arm-none-eabi/11.2.1/thumb/v7e-m+fp/hard\libm.a(lib_a-s_floor.o)
 .debug_abbrev  0x00000000      0x12a d:/11.2 2022.02/bin/../lib/gcc/arm-none-eabi/11.2.1/thumb/v7e-m+fp/hard\libm.a(lib_a-s_floor.o)
 .debug_loclists
                0x00000000      0x1b5 d:/11.2 2022.02/bin/../lib/gcc/arm-none-eabi/11.2.1/thumb/v7e-m+fp/hard\libm.a(lib_a-s_floor.o)
 .debug_aranges
                0x00000000       0x20 d:/11.2 2022.02/bin/../lib/gcc/arm-none-eabi/11.2.1/thumb/v7e-m+fp/hard\libm.a(lib_a-s_floor.o)
 .debug_rnglists
                0x00000000       0x2f d:/11.2 2022.02/bin/../lib/gcc/arm-none-eabi/11.2.1/thumb/v7e-m+fp/hard\libm.a(lib_a-s_floor.o)
 .debug_line    0x00000000      0x32d d:/11.2 2022.02/bin/../lib/gcc/arm-none-eabi/11.2.1/thumb/v7e-m+fp/hard\libm.a(lib_a-s_floor.o)
 .debug_str     0x00000000      0x286 d:/11.2 2022.02/bin/../lib/gcc/arm-none-eabi/11.2.1/thumb/v7e-m+fp/hard\libm.a(lib_a-s_floor.o)
 .comment       0x00000000       0x58 d:/11.2 2022.02/bin/../lib/gcc/arm-none-eabi/11.2.1/thumb/v7e-m+fp/hard\libm.a(lib_a-s_floor.o)
 .debug_frame   0x00000000       0x34 d:/11.2 2022.02/bin/../lib/gcc/arm-none-eabi/11.2.1/thumb/v7e-m+fp/hard\libm.a(lib_a-s_floor.o)
 .ARM.attributes
                0x00000000       0x34 d:/11.2 2022.02/bin/../lib/gcc/arm-none-eabi/11.2.1/thumb/v7e-m+fp/hard\libm.a(lib_a-s_floor.o)
 .text          0x00000000        0x0 d:/11.2 2022.02/bin/../lib/gcc/arm-none-eabi/11.2.1/thumb/v7e-m+fp/hard\libnosys.a(close.o)
 .data          0x00000000        0x0 d:/11.2 2022.02/bin/../lib/gcc/arm-none-eabi/11.2.1/thumb/v7e-m+fp/hard\libnosys.a(close.o)
 .bss           0x00000000        0x0 d:/11.2 2022.02/bin/../lib/gcc/arm-none-eabi/11.2.1/thumb/v7e-m+fp/hard\libnosys.a(close.o)
 .text          0x00000000        0x0 d:/11.2 2022.02/bin/../lib/gcc/arm-none-eabi/11.2.1/thumb/v7e-m+fp/hard\libnosys.a(fstat.o)
 .data          0x00000000        0x0 d:/11.2 2022.02/bin/../lib/gcc/arm-none-eabi/11.2.1/thumb/v7e-m+fp/hard\libnosys.a(fstat.o)
 .bss           0x00000000        0x0 d:/11.2 2022.02/bin/../lib/gcc/arm-none-eabi/11.2.1/thumb/v7e-m+fp/hard\libnosys.a(fstat.o)
 .text          0x00000000        0x0 d:/11.2 2022.02/bin/../lib/gcc/arm-none-eabi/11.2.1/thumb/v7e-m+fp/hard\libnosys.a(getpid.o)
 .data          0x00000000        0x0 d:/11.2 2022.02/bin/../lib/gcc/arm-none-eabi/11.2.1/thumb/v7e-m+fp/hard\libnosys.a(getpid.o)
 .bss           0x00000000        0x0 d:/11.2 2022.02/bin/../lib/gcc/arm-none-eabi/11.2.1/thumb/v7e-m+fp/hard\libnosys.a(getpid.o)
 .text          0x00000000        0x0 d:/11.2 2022.02/bin/../lib/gcc/arm-none-eabi/11.2.1/thumb/v7e-m+fp/hard\libnosys.a(isatty.o)
 .data          0x00000000        0x0 d:/11.2 2022.02/bin/../lib/gcc/arm-none-eabi/11.2.1/thumb/v7e-m+fp/hard\libnosys.a(isatty.o)
 .bss           0x00000000        0x0 d:/11.2 2022.02/bin/../lib/gcc/arm-none-eabi/11.2.1/thumb/v7e-m+fp/hard\libnosys.a(isatty.o)
 .text          0x00000000        0x0 d:/11.2 2022.02/bin/../lib/gcc/arm-none-eabi/11.2.1/thumb/v7e-m+fp/hard\libnosys.a(kill.o)
 .data          0x00000000        0x0 d:/11.2 2022.02/bin/../lib/gcc/arm-none-eabi/11.2.1/thumb/v7e-m+fp/hard\libnosys.a(kill.o)
 .bss           0x00000000        0x0 d:/11.2 2022.02/bin/../lib/gcc/arm-none-eabi/11.2.1/thumb/v7e-m+fp/hard\libnosys.a(kill.o)
 .text          0x00000000        0x0 d:/11.2 2022.02/bin/../lib/gcc/arm-none-eabi/11.2.1/thumb/v7e-m+fp/hard\libnosys.a(lseek.o)
 .data          0x00000000        0x0 d:/11.2 2022.02/bin/../lib/gcc/arm-none-eabi/11.2.1/thumb/v7e-m+fp/hard\libnosys.a(lseek.o)
 .bss           0x00000000        0x0 d:/11.2 2022.02/bin/../lib/gcc/arm-none-eabi/11.2.1/thumb/v7e-m+fp/hard\libnosys.a(lseek.o)
 .text          0x00000000        0x0 d:/11.2 2022.02/bin/../lib/gcc/arm-none-eabi/11.2.1/thumb/v7e-m+fp/hard\libnosys.a(read.o)
 .data          0x00000000        0x0 d:/11.2 2022.02/bin/../lib/gcc/arm-none-eabi/11.2.1/thumb/v7e-m+fp/hard\libnosys.a(read.o)
 .bss           0x00000000        0x0 d:/11.2 2022.02/bin/../lib/gcc/arm-none-eabi/11.2.1/thumb/v7e-m+fp/hard\libnosys.a(read.o)
 .text          0x00000000        0x0 d:/11.2 2022.02/bin/../lib/gcc/arm-none-eabi/11.2.1/thumb/v7e-m+fp/hard\libnosys.a(sbrk.o)
 .data          0x00000000        0x0 d:/11.2 2022.02/bin/../lib/gcc/arm-none-eabi/11.2.1/thumb/v7e-m+fp/hard\libnosys.a(sbrk.o)
 .bss           0x00000000        0x0 d:/11.2 2022.02/bin/../lib/gcc/arm-none-eabi/11.2.1/thumb/v7e-m+fp/hard\libnosys.a(sbrk.o)
 .text          0x00000000        0x0 d:/11.2 2022.02/bin/../lib/gcc/arm-none-eabi/11.2.1/thumb/v7e-m+fp/hard\libnosys.a(write.o)
 .data          0x00000000        0x0 d:/11.2 2022.02/bin/../lib/gcc/arm-none-eabi/11.2.1/thumb/v7e-m+fp/hard\libnosys.a(write.o)
 .bss           0x00000000        0x0 d:/11.2 2022.02/bin/../lib/gcc/arm-none-eabi/11.2.1/thumb/v7e-m+fp/hard\libnosys.a(write.o)
 .text          0x00000000        0x0 d:/11.2 2022.02/bin/../lib/gcc/arm-none-eabi/11.2.1/thumb/v7e-m+fp/hard\libnosys.a(_exit.o)
 .data          0x00000000        0x0 d:/11.2 2022.02/bin/../lib/gcc/arm-none-eabi/11.2.1/thumb/v7e-m+fp/hard\libnosys.a(_exit.o)
 .bss           0x00000000        0x0 d:/11.2 2022.02/bin/../lib/gcc/arm-none-eabi/11.2.1/thumb/v7e-m+fp/hard\libnosys.a(_exit.o)
 .text          0x00000000      0x254 d:/11.2 2022.02/bin/../lib/gcc/arm-none-eabi/11.2.1/thumb/v7e-m+fp/hard\libgcc.a(_arm_muldf3.o)
 .data          0x00000000        0x0 d:/11.2 2022.02/bin/../lib/gcc/arm-none-eabi/11.2.1/thumb/v7e-m+fp/hard\libgcc.a(_arm_muldf3.o)
 .bss           0x00000000        0x0 d:/11.2 2022.02/bin/../lib/gcc/arm-none-eabi/11.2.1/thumb/v7e-m+fp/hard\libgcc.a(_arm_muldf3.o)
 .debug_line    0x00000000       0xf5 d:/11.2 2022.02/bin/../lib/gcc/arm-none-eabi/11.2.1/thumb/v7e-m+fp/hard\libgcc.a(_arm_muldf3.o)
 .debug_line_str
                0x00000000       0xa8 d:/11.2 2022.02/bin/../lib/gcc/arm-none-eabi/11.2.1/thumb/v7e-m+fp/hard\libgcc.a(_arm_muldf3.o)
 .debug_info    0x00000000       0x25 d:/11.2 2022.02/bin/../lib/gcc/arm-none-eabi/11.2.1/thumb/v7e-m+fp/hard\libgcc.a(_arm_muldf3.o)
 .debug_abbrev  0x00000000       0x14 d:/11.2 2022.02/bin/../lib/gcc/arm-none-eabi/11.2.1/thumb/v7e-m+fp/hard\libgcc.a(_arm_muldf3.o)
 .debug_aranges
                0x00000000       0x20 d:/11.2 2022.02/bin/../lib/gcc/arm-none-eabi/11.2.1/thumb/v7e-m+fp/hard\libgcc.a(_arm_muldf3.o)
 .debug_str     0x00000000       0x93 d:/11.2 2022.02/bin/../lib/gcc/arm-none-eabi/11.2.1/thumb/v7e-m+fp/hard\libgcc.a(_arm_muldf3.o)
 .debug_frame   0x00000000       0x30 d:/11.2 2022.02/bin/../lib/gcc/arm-none-eabi/11.2.1/thumb/v7e-m+fp/hard\libgcc.a(_arm_muldf3.o)
 .ARM.attributes
                0x00000000       0x1e d:/11.2 2022.02/bin/../lib/gcc/arm-none-eabi/11.2.1/thumb/v7e-m+fp/hard\libgcc.a(_arm_muldf3.o)
 .data          0x00000000        0x0 d:/11.2 2022.02/bin/../lib/gcc/arm-none-eabi/11.2.1/thumb/v7e-m+fp/hard\libgcc.a(_arm_addsubdf3.o)
 .bss           0x00000000        0x0 d:/11.2 2022.02/bin/../lib/gcc/arm-none-eabi/11.2.1/thumb/v7e-m+fp/hard\libgcc.a(_arm_addsubdf3.o)
 .data          0x00000000        0x0 d:/11.2 2022.02/bin/../lib/gcc/arm-none-eabi/11.2.1/thumb/v7e-m+fp/hard\libgcc.a(_arm_muldivdf3.o)
 .bss           0x00000000        0x0 d:/11.2 2022.02/bin/../lib/gcc/arm-none-eabi/11.2.1/thumb/v7e-m+fp/hard\libgcc.a(_arm_muldivdf3.o)
 .data          0x00000000        0x0 d:/11.2 2022.02/bin/../lib/gcc/arm-none-eabi/11.2.1/thumb/v7e-m+fp/hard\libgcc.a(_arm_cmpdf2.o)
 .bss           0x00000000        0x0 d:/11.2 2022.02/bin/../lib/gcc/arm-none-eabi/11.2.1/thumb/v7e-m+fp/hard\libgcc.a(_arm_cmpdf2.o)
 .data          0x00000000        0x0 d:/11.2 2022.02/bin/../lib/gcc/arm-none-eabi/11.2.1/thumb/v7e-m+fp/hard\libgcc.a(_arm_unorddf2.o)
 .bss           0x00000000        0x0 d:/11.2 2022.02/bin/../lib/gcc/arm-none-eabi/11.2.1/thumb/v7e-m+fp/hard\libgcc.a(_arm_unorddf2.o)
 .data          0x00000000        0x0 d:/11.2 2022.02/bin/../lib/gcc/arm-none-eabi/11.2.1/thumb/v7e-m+fp/hard\libgcc.a(_arm_fixdfsi.o)
 .bss           0x00000000        0x0 d:/11.2 2022.02/bin/../lib/gcc/arm-none-eabi/11.2.1/thumb/v7e-m+fp/hard\libgcc.a(_arm_fixdfsi.o)
 .data          0x00000000        0x0 d:/11.2 2022.02/bin/../lib/gcc/arm-none-eabi/11.2.1/thumb/v7e-m+fp/hard\libgcc.a(_aeabi_uldivmod.o)
 .bss           0x00000000        0x0 d:/11.2 2022.02/bin/../lib/gcc/arm-none-eabi/11.2.1/thumb/v7e-m+fp/hard\libgcc.a(_aeabi_uldivmod.o)
 .text          0x00000000        0x0 d:/11.2 2022.02/bin/../lib/gcc/arm-none-eabi/11.2.1/thumb/v7e-m+fp/hard\libgcc.a(_udivmoddi4.o)
 .data          0x00000000        0x0 d:/11.2 2022.02/bin/../lib/gcc/arm-none-eabi/11.2.1/thumb/v7e-m+fp/hard\libgcc.a(_udivmoddi4.o)
 .bss           0x00000000        0x0 d:/11.2 2022.02/bin/../lib/gcc/arm-none-eabi/11.2.1/thumb/v7e-m+fp/hard\libgcc.a(_udivmoddi4.o)
 .ARM.extab.text.__udivmoddi4
                0x00000000        0x0 d:/11.2 2022.02/bin/../lib/gcc/arm-none-eabi/11.2.1/thumb/v7e-m+fp/hard\libgcc.a(_udivmoddi4.o)
 .data          0x00000000        0x0 d:/11.2 2022.02/bin/../lib/gcc/arm-none-eabi/11.2.1/thumb/v7e-m+fp/hard\libgcc.a(_dvmd_tls.o)
 .bss           0x00000000        0x0 d:/11.2 2022.02/bin/../lib/gcc/arm-none-eabi/11.2.1/thumb/v7e-m+fp/hard\libgcc.a(_dvmd_tls.o)
 .text          0x00000000        0x0 d:/11.2 2022.02/bin/../lib/gcc/arm-none-eabi/11.2.1/thumb/v7e-m+fp/hard/crtend.o
 .data          0x00000000        0x0 d:/11.2 2022.02/bin/../lib/gcc/arm-none-eabi/11.2.1/thumb/v7e-m+fp/hard/crtend.o
 .bss           0x00000000        0x0 d:/11.2 2022.02/bin/../lib/gcc/arm-none-eabi/11.2.1/thumb/v7e-m+fp/hard/crtend.o
 .rodata.all_implied_fbits
                0x00000000       0x24 d:/11.2 2022.02/bin/../lib/gcc/arm-none-eabi/11.2.1/thumb/v7e-m+fp/hard/crtend.o
 .eh_frame      0x00000000        0x4 d:/11.2 2022.02/bin/../lib/gcc/arm-none-eabi/11.2.1/thumb/v7e-m+fp/hard/crtend.o
 .text          0x00000000        0x0 d:/11.2 2022.02/bin/../lib/gcc/arm-none-eabi/11.2.1/thumb/v7e-m+fp/hard/crtn.o
 .data          0x00000000        0x0 d:/11.2 2022.02/bin/../lib/gcc/arm-none-eabi/11.2.1/thumb/v7e-m+fp/hard/crtn.o
 .bss           0x00000000        0x0 d:/11.2 2022.02/bin/../lib/gcc/arm-none-eabi/11.2.1/thumb/v7e-m+fp/hard/crtn.o

Memory Configuration

Name             Origin             Length             Attributes
RAM              0x20000000         0x00020000         xrw
CCMRAM           0x10000000         0x00010000         xrw
FLASH            0x08000000         0x00080000         xr
*default*        0x00000000         0xffffffff

Linker script and memory map

LOAD d:/11.2 2022.02/bin/../lib/gcc/arm-none-eabi/11.2.1/thumb/v7e-m+fp/hard/crti.o
LOAD d:/11.2 2022.02/bin/../lib/gcc/arm-none-eabi/11.2.1/thumb/v7e-m+fp/hard/crtbegin.o
LOAD d:/11.2 2022.02/bin/../lib/gcc/arm-none-eabi/11.2.1/thumb/v7e-m+fp/hard/crt0.o
LOAD build/main.o
LOAD build/gpio.o
LOAD build/stm32f4xx_it.o
LOAD build/stm32f4xx_hal_msp.o
LOAD build/stm32f4xx_hal_tim.o
LOAD build/stm32f4xx_hal_tim_ex.o
LOAD build/stm32f4xx_hal_rcc.o
LOAD build/stm32f4xx_hal_rcc_ex.o
LOAD build/stm32f4xx_hal_flash.o
LOAD build/stm32f4xx_hal_flash_ex.o
LOAD build/stm32f4xx_hal_flash_ramfunc.o
LOAD build/stm32f4xx_hal_gpio.o
LOAD build/stm32f4xx_hal_dma_ex.o
LOAD build/stm32f4xx_hal_dma.o
LOAD build/stm32f4xx_hal_pwr.o
LOAD build/stm32f4xx_hal_pwr_ex.o
LOAD build/stm32f4xx_hal_cortex.o
LOAD build/stm32f4xx_hal.o
LOAD build/stm32f4xx_hal_exti.o
LOAD build/system_stm32f4xx.o
LOAD build/dma.o
LOAD build/tim.o
LOAD build/usart.o
LOAD build/stm32f4xx_hal_uart.o
LOAD build/inverse_kinematics.o
LOAD build/pid.o
LOAD build/zigbee_edc24.o
LOAD build/startup_stm32f407xx.o
LOAD d:/11.2 2022.02/bin/../lib/gcc/arm-none-eabi/11.2.1/thumb/v7e-m+fp/hard\libc.a
LOAD d:/11.2 2022.02/bin/../lib/gcc/arm-none-eabi/11.2.1/thumb/v7e-m+fp/hard\libm.a
LOAD d:/11.2 2022.02/bin/../lib/gcc/arm-none-eabi/11.2.1/thumb/v7e-m+fp/hard\libnosys.a
START GROUP
LOAD d:/11.2 2022.02/bin/../lib/gcc/arm-none-eabi/11.2.1/thumb/v7e-m+fp/hard\libgcc.a
LOAD d:/11.2 2022.02/bin/../lib/gcc/arm-none-eabi/11.2.1/thumb/v7e-m+fp/hard\libc.a
END GROUP
START GROUP
LOAD d:/11.2 2022.02/bin/../lib/gcc/arm-none-eabi/11.2.1/thumb/v7e-m+fp/hard\libgcc.a
LOAD d:/11.2 2022.02/bin/../lib/gcc/arm-none-eabi/11.2.1/thumb/v7e-m+fp/hard\libc.a
LOAD d:/11.2 2022.02/bin/../lib/gcc/arm-none-eabi/11.2.1/thumb/v7e-m+fp/hard\libnosys.a
END GROUP
LOAD d:/11.2 2022.02/bin/../lib/gcc/arm-none-eabi/11.2.1/thumb/v7e-m+fp/hard/crtend.o
LOAD d:/11.2 2022.02/bin/../lib/gcc/arm-none-eabi/11.2.1/thumb/v7e-m+fp/hard/crtn.o
                0x20020000                _estack = (ORIGIN (RAM) + LENGTH (RAM))
                0x00000200                _Min_Heap_Size = 0x200
                0x00000400                _Min_Stack_Size = 0x400

.isr_vector     0x08000000      0x188
                0x08000000                . = ALIGN (0x4)
 *(.isr_vector)
 .isr_vector    0x08000000      0x188 build/startup_stm32f407xx.o
                0x08000000                g_pfnVectors
                0x08000188                . = ALIGN (0x4)

.text           0x080001c0     0x95f8
                0x080001c0                . = ALIGN (0x4)
 *(.text)
 .text          0x080001c0       0xdc d:/11.2 2022.02/bin/../lib/gcc/arm-none-eabi/11.2.1/thumb/v7e-m+fp/hard\libc.a(lib_a-strlen.o)
                0x080001c0                strlen
 *fill*         0x0800029c        0x4 
 .text          0x080002a0       0xa0 d:/11.2 2022.02/bin/../lib/gcc/arm-none-eabi/11.2.1/thumb/v7e-m+fp/hard\libc.a(lib_a-memchr.o)
                0x080002a0                memchr
 .text          0x08000340      0x134 d:/11.2 2022.02/bin/../lib/gcc/arm-none-eabi/11.2.1/thumb/v7e-m+fp/hard\libc.a(lib_a-memcpy.o)
                0x08000340                memcpy
 .text          0x08000474      0x378 d:/11.2 2022.02/bin/../lib/gcc/arm-none-eabi/11.2.1/thumb/v7e-m+fp/hard\libgcc.a(_arm_addsubdf3.o)
                0x08000474                __aeabi_drsub
                0x0800047c                __aeabi_dsub
                0x0800047c                __subdf3
                0x08000480                __aeabi_dadd
                0x08000480                __adddf3
                0x080006f8                __floatunsidf
                0x080006f8                __aeabi_ui2d
                0x08000718                __floatsidf
                0x08000718                __aeabi_i2d
                0x0800073c                __aeabi_f2d
                0x0800073c                __extendsfdf2
                0x08000780                __floatundidf
                0x08000780                __aeabi_ul2d
                0x08000790                __floatdidf
                0x08000790                __aeabi_l2d
 .text          0x080007ec      0x424 d:/11.2 2022.02/bin/../lib/gcc/arm-none-eabi/11.2.1/thumb/v7e-m+fp/hard\libgcc.a(_arm_muldivdf3.o)
                0x080007ec                __aeabi_dmul
                0x080007ec                __muldf3
                0x08000a40                __divdf3
                0x08000a40                __aeabi_ddiv
 .text          0x08000c10      0x110 d:/11.2 2022.02/bin/../lib/gcc/arm-none-eabi/11.2.1/thumb/v7e-m+fp/hard\libgcc.a(_arm_cmpdf2.o)
                0x08000c10                __gtdf2
                0x08000c10                __gedf2
                0x08000c18                __ltdf2
                0x08000c18                __ledf2
                0x08000c20                __nedf2
                0x08000c20                __eqdf2
                0x08000c20                __cmpdf2
                0x08000c9c                __aeabi_cdrcmple
                0x08000cac                __aeabi_cdcmpeq
                0x08000cac                __aeabi_cdcmple
                0x08000cbc                __aeabi_dcmpeq
                0x08000cd0                __aeabi_dcmplt
                0x08000ce4                __aeabi_dcmple
                0x08000cf8                __aeabi_dcmpge
                0x08000d0c                __aeabi_dcmpgt
 .text          0x08000d20       0x2c d:/11.2 2022.02/bin/../lib/gcc/arm-none-eabi/11.2.1/thumb/v7e-m+fp/hard\libgcc.a(_arm_unorddf2.o)
                0x08000d20                __unorddf2
                0x08000d20                __aeabi_dcmpun
 .text          0x08000d4c       0x50 d:/11.2 2022.02/bin/../lib/gcc/arm-none-eabi/11.2.1/thumb/v7e-m+fp/hard\libgcc.a(_arm_fixdfsi.o)
                0x08000d4c                __aeabi_d2iz
                0x08000d4c                __fixdfsi
 .text          0x08000d9c       0x30 d:/11.2 2022.02/bin/../lib/gcc/arm-none-eabi/11.2.1/thumb/v7e-m+fp/hard\libgcc.a(_aeabi_uldivmod.o)
                0x08000d9c                __aeabi_uldivmod
 .text          0x08000dcc        0x4 d:/11.2 2022.02/bin/../lib/gcc/arm-none-eabi/11.2.1/thumb/v7e-m+fp/hard\libgcc.a(_dvmd_tls.o)
                0x08000dcc                __aeabi_idiv0
                0x08000dcc                __aeabi_ldiv0
 *(.text*)
 .text.deregister_tm_clones
                0x08000dd0       0x1c d:/11.2 2022.02/bin/../lib/gcc/arm-none-eabi/11.2.1/thumb/v7e-m+fp/hard/crtbegin.o
 .text.register_tm_clones
                0x08000dec       0x24 d:/11.2 2022.02/bin/../lib/gcc/arm-none-eabi/11.2.1/thumb/v7e-m+fp/hard/crtbegin.o
 .text.__do_global_dtors_aux
                0x08000e10       0x28 d:/11.2 2022.02/bin/../lib/gcc/arm-none-eabi/11.2.1/thumb/v7e-m+fp/hard/crtbegin.o
 .text.frame_dummy
                0x08000e38       0x24 d:/11.2 2022.02/bin/../lib/gcc/arm-none-eabi/11.2.1/thumb/v7e-m+fp/hard/crtbegin.o
 .text.Error_Handler
                0x08000e5c        0x4 build/main.o
                0x08000e5c                Error_Handler
 .text.SystemClock_Config
                0x08000e60       0xa4 build/main.o
                0x08000e60                SystemClock_Config
 *fill*         0x08000f04        0x4 
 .text.main     0x08000f08      0x158 build/main.o
                0x08000f08                main
 .text.MX_GPIO_Init
                0x08001060       0xd8 build/gpio.o
                0x08001060                MX_GPIO_Init
 .text.NMI_Handler
                0x08001138        0x2 build/stm32f4xx_it.o
                0x08001138                NMI_Handler
 .text.HardFault_Handler
                0x0800113a        0x2 build/stm32f4xx_it.o
                0x0800113a                HardFault_Handler
 .text.MemManage_Handler
                0x0800113c        0x2 build/stm32f4xx_it.o
                0x0800113c                MemManage_Handler
 .text.BusFault_Handler
                0x0800113e        0x2 build/stm32f4xx_it.o
                0x0800113e                BusFault_Handler
 .text.UsageFault_Handler
                0x08001140        0x2 build/stm32f4xx_it.o
                0x08001140                UsageFault_Handler
 .text.SVC_Handler
                0x08001142        0x2 build/stm32f4xx_it.o
                0x08001142                SVC_Handler
 .text.DebugMon_Handler
                0x08001144        0x2 build/stm32f4xx_it.o
                0x08001144                DebugMon_Handler
 .text.PendSV_Handler
                0x08001146        0x2 build/stm32f4xx_it.o
                0x08001146                PendSV_Handler
 .text.SysTick_Handler
                0x08001148        0x8 build/stm32f4xx_it.o
                0x08001148                SysTick_Handler
 .text.DMA1_Stream0_IRQHandler
                0x08001150       0x10 build/stm32f4xx_it.o
                0x08001150                DMA1_Stream0_IRQHandler
 .text.DMA1_Stream2_IRQHandler
                0x08001160       0x10 build/stm32f4xx_it.o
                0x08001160                DMA1_Stream2_IRQHandler
 .text.HAL_MspInit
                0x08001170       0x38 build/stm32f4xx_hal_msp.o
                0x08001170                HAL_MspInit
 .text.TIM_OC1_SetConfig
                0x080011a8       0x70 build/stm32f4xx_hal_tim.o
 .text.TIM_OC3_SetConfig
                0x08001218       0x70 build/stm32f4xx_hal_tim.o
 .text.TIM_OC4_SetConfig
                0x08001288       0x50 build/stm32f4xx_hal_tim.o
 .text.TIM_Base_SetConfig
                0x080012d8       0xc8 build/stm32f4xx_hal_tim.o
                0x080012d8                TIM_Base_SetConfig
 .text.HAL_TIM_PWM_Init
                0x080013a0       0x58 build/stm32f4xx_hal_tim.o
                0x080013a0                HAL_TIM_PWM_Init
 .text.HAL_TIM_Encoder_Init
                0x080013f8       0xb0 build/stm32f4xx_hal_tim.o
                0x080013f8                HAL_TIM_Encoder_Init
 .text.TIM_OC2_SetConfig
                0x080014a8       0x70 build/stm32f4xx_hal_tim.o
                0x080014a8                TIM_OC2_SetConfig
 .text.HAL_TIM_PWM_ConfigChannel
                0x08001518       0xdc build/stm32f4xx_hal_tim.o
                0x08001518                HAL_TIM_PWM_ConfigChannel
 .text.TIM_CCxChannelCmd
                0x080015f4       0x1e build/stm32f4xx_hal_tim.o
                0x080015f4                TIM_CCxChannelCmd
 *fill*         0x08001612        0x2 
 .text.HAL_TIM_PWM_Start
                0x08001614      0x104 build/stm32f4xx_hal_tim.o
                0x08001614                HAL_TIM_PWM_Start
 .text.HAL_TIM_Encoder_Start
                0x08001718       0xcc build/stm32f4xx_hal_tim.o
                0x08001718                HAL_TIM_Encoder_Start
 .text.HAL_TIMEx_MasterConfigSynchronization
                0x080017e4       0x8c build/stm32f4xx_hal_tim_ex.o
                0x080017e4                HAL_TIMEx_MasterConfigSynchronization
 .text.HAL_RCC_OscConfig
                0x08001870      0x3f8 build/stm32f4xx_hal_rcc.o
                0x08001870                HAL_RCC_OscConfig
 .text.HAL_RCC_GetSysClockFreq
                0x08001c68       0xa8 build/stm32f4xx_hal_rcc.o
                0x08001c68                HAL_RCC_GetSysClockFreq
 .text.HAL_RCC_ClockConfig
                0x08001d10      0x160 build/stm32f4xx_hal_rcc.o
                0x08001d10                HAL_RCC_ClockConfig
 .text.HAL_RCC_GetHCLKFreq
                0x08001e70        0xc build/stm32f4xx_hal_rcc.o
                0x08001e70                HAL_RCC_GetHCLKFreq
 .text.HAL_RCC_GetPCLK1Freq
                0x08001e7c       0x20 build/stm32f4xx_hal_rcc.o
                0x08001e7c                HAL_RCC_GetPCLK1Freq
 .text.HAL_RCC_GetPCLK2Freq
                0x08001e9c       0x20 build/stm32f4xx_hal_rcc.o
                0x08001e9c                HAL_RCC_GetPCLK2Freq
 .text.HAL_GPIO_Init
                0x08001ebc      0x1ec build/stm32f4xx_hal_gpio.o
                0x08001ebc                HAL_GPIO_Init
 .text.HAL_GPIO_WritePin
                0x080020a8        0xc build/stm32f4xx_hal_gpio.o
                0x080020a8                HAL_GPIO_WritePin
 .text.HAL_GPIO_TogglePin
                0x080020b4       0x12 build/stm32f4xx_hal_gpio.o
                0x080020b4                HAL_GPIO_TogglePin
 *fill*         0x080020c6        0x2 
 .text.DMA_CalcBaseAndBitshift
                0x080020c8       0x44 build/stm32f4xx_hal_dma.o
 .text.DMA_CheckFifoParam
                0x0800210c       0x8e build/stm32f4xx_hal_dma.o
 *fill*         0x0800219a        0x2 
 .text.HAL_DMA_Init
                0x0800219c       0xcc build/stm32f4xx_hal_dma.o
                0x0800219c                HAL_DMA_Init
 .text.HAL_DMA_IRQHandler
                0x08002268      0x1dc build/stm32f4xx_hal_dma.o
                0x08002268                HAL_DMA_IRQHandler
 .text.HAL_NVIC_SetPriorityGrouping
                0x08002444       0x24 build/stm32f4xx_hal_cortex.o
                0x08002444                HAL_NVIC_SetPriorityGrouping
 .text.HAL_NVIC_SetPriority
                0x08002468       0x70 build/stm32f4xx_hal_cortex.o
                0x08002468                HAL_NVIC_SetPriority
 .text.HAL_NVIC_EnableIRQ
                0x080024d8       0x1c build/stm32f4xx_hal_cortex.o
                0x080024d8                HAL_NVIC_EnableIRQ
 .text.HAL_SYSTICK_Config
                0x080024f4       0x28 build/stm32f4xx_hal_cortex.o
                0x080024f4                HAL_SYSTICK_Config
 .text.HAL_InitTick
                0x0800251c       0x4c build/stm32f4xx_hal.o
                0x0800251c                HAL_InitTick
 .text.HAL_Init
                0x08002568       0x34 build/stm32f4xx_hal.o
                0x08002568                HAL_Init
 .text.HAL_IncTick
                0x0800259c       0x18 build/stm32f4xx_hal.o
                0x0800259c                HAL_IncTick
 .text.HAL_GetTick
                0x080025b4        0xc build/stm32f4xx_hal.o
                0x080025b4                HAL_GetTick
 .text.SystemInit
                0x080025c0       0x14 build/system_stm32f4xx.o
                0x080025c0                SystemInit
 .text.MX_DMA_Init
                0x080025d4       0x44 build/dma.o
                0x080025d4                MX_DMA_Init
 .text.MX_TIM1_Init
                0x08002618       0x68 build/tim.o
                0x08002618                MX_TIM1_Init
 .text.MX_TIM4_Init
                0x08002680       0x64 build/tim.o
                0x08002680                MX_TIM4_Init
 .text.MX_TIM5_Init
                0x080026e4       0x64 build/tim.o
                0x080026e4                MX_TIM5_Init
 .text.MX_TIM8_Init
                0x08002748       0x64 build/tim.o
                0x08002748                MX_TIM8_Init
 .text.HAL_TIM_Encoder_MspInit
                0x080027ac      0x15c build/tim.o
                0x080027ac                HAL_TIM_Encoder_MspInit
 .text.HAL_TIM_PWM_MspInit
                0x08002908       0x30 build/tim.o
                0x08002908                HAL_TIM_PWM_MspInit
 .text.HAL_TIM_MspPostInit
                0x08002938       0x80 build/tim.o
                0x08002938                HAL_TIM_MspPostInit
 .text.MX_TIM3_Init
                0x080029b8       0xb8 build/tim.o
                0x080029b8                MX_TIM3_Init
 .text.MX_UART4_Init
                0x08002a70       0x34 build/usart.o
                0x08002a70                MX_UART4_Init
 .text.MX_UART5_Init
                0x08002aa4       0x34 build/usart.o
                0x08002aa4                MX_UART5_Init
 .text.MX_USART2_UART_Init
                0x08002ad8       0x34 build/usart.o
                0x08002ad8                MX_USART2_UART_Init
 .text.HAL_UART_MspInit
                0x08002b0c      0x1c4 build/usart.o
                0x08002b0c                HAL_UART_MspInit
 .text.u1_printf
                0x08002cd0       0x38 build/usart.o
                0x08002cd0                u1_printf
 .text.UART_SetConfig
                0x08002d08      0x110 build/stm32f4xx_hal_uart.o
 .text.UART_WaitOnFlagUntilTimeout
                0x08002e18       0x84 build/stm32f4xx_hal_uart.o
 .text.HAL_UART_Init
                0x08002e9c       0x5e build/stm32f4xx_hal_uart.o
                0x08002e9c                HAL_UART_Init
 .text.HAL_UART_Transmit
                0x08002efa       0xd8 build/stm32f4xx_hal_uart.o
                0x08002efa                HAL_UART_Transmit
 .text.pid_output
                0x08002fd2       0xc2 build/pid.o
                0x08002fd2                pid_output
 *fill*         0x08003094        0x4 
 .text.wheel_init
                0x08003098       0xc4 build/pid.o
                0x08003098                wheel_init
 .text.wheel_reverse
                0x0800315c       0x1a build/pid.o
                0x0800315c                wheel_reverse
 .text.wheel_pwm
                0x08003176       0x44 build/pid.o
                0x08003176                wheel_pwm
 *fill*         0x080031ba        0x6 
 .text.wheel_getVel
                0x080031c0       0x50 build/pid.o
                0x080031c0                wheel_getVel
 .text.Reset_Handler
                0x08003210       0x50 build/startup_stm32f407xx.o
                0x08003210                Reset_Handler
 .text.Default_Handler
                0x08003260        0x2 build/startup_stm32f407xx.o
                0x08003260                RTC_Alarm_IRQHandler
                0x08003260                HASH_RNG_IRQHandler
                0x08003260                EXTI2_IRQHandler
                0x08003260                TIM8_CC_IRQHandler
                0x08003260                TIM1_CC_IRQHandler
                0x08003260                DMA2_Stream5_IRQHandler
                0x08003260                DMA1_Stream5_IRQHandler
                0x08003260                PVD_IRQHandler
                0x08003260                SDIO_IRQHandler
                0x08003260                TAMP_STAMP_IRQHandler
                0x08003260                CAN2_RX1_IRQHandler
                0x08003260                EXTI3_IRQHandler
                0x08003260                TIM8_TRG_COM_TIM14_IRQHandler
                0x08003260                TIM1_UP_TIM10_IRQHandler
                0x08003260                TIM8_UP_TIM13_IRQHandler
                0x08003260                I2C3_ER_IRQHandler
                0x08003260                EXTI0_IRQHandler
                0x08003260                I2C2_EV_IRQHandler
                0x08003260                CAN1_RX0_IRQHandler
                0x08003260                FPU_IRQHandler
                0x08003260                OTG_HS_WKUP_IRQHandler
                0x08003260                CAN2_SCE_IRQHandler
                0x08003260                DMA2_Stream2_IRQHandler
                0x08003260                SPI1_IRQHandler
                0x08003260                TIM6_DAC_IRQHandler
                0x08003260                TIM1_BRK_TIM9_IRQHandler
                0x08003260                DCMI_IRQHandler
                0x08003260                CAN2_RX0_IRQHandler
                0x08003260                DMA2_Stream3_IRQHandler
                0x08003260                USART6_IRQHandler
                0x08003260                USART3_IRQHandler
                0x08003260                CAN1_RX1_IRQHandler
                0x08003260                UART5_IRQHandler
                0x08003260                DMA2_Stream0_IRQHandler
                0x08003260                TIM4_IRQHandler
                0x08003260                I2C1_EV_IRQHandler
                0x08003260                DMA1_Stream6_IRQHandler
                0x08003260                DMA1_Stream1_IRQHandler
                0x08003260                UART4_IRQHandler
                0x08003260                TIM3_IRQHandler
                0x08003260                RCC_IRQHandler
                0x08003260                TIM8_BRK_TIM12_IRQHandler
                0x08003260                Default_Handler
                0x08003260                EXTI15_10_IRQHandler
                0x08003260                ADC_IRQHandler
                0x08003260                DMA1_Stream7_IRQHandler
                0x08003260                TIM7_IRQHandler
                0x08003260                CAN2_TX_IRQHandler
                0x08003260                TIM5_IRQHandler
                0x08003260                DMA2_Stream7_IRQHandler
                0x08003260                I2C3_EV_IRQHandler
                0x08003260                EXTI9_5_IRQHandler
                0x08003260                RTC_WKUP_IRQHandler
                0x08003260                ETH_WKUP_IRQHandler
                0x08003260                SPI2_IRQHandler
                0x08003260                OTG_HS_EP1_IN_IRQHandler
                0x08003260                CAN1_TX_IRQHandler
                0x08003260                EXTI4_IRQHandler
                0x08003260                FSMC_IRQHandler
                0x08003260                ETH_IRQHandler
                0x08003260                OTG_HS_EP1_OUT_IRQHandler
                0x08003260                WWDG_IRQHandler
                0x08003260                TIM2_IRQHandler
                0x08003260                OTG_FS_WKUP_IRQHandler
                0x08003260                TIM1_TRG_COM_TIM11_IRQHandler
                0x08003260                OTG_HS_IRQHandler
                0x08003260                EXTI1_IRQHandler
                0x08003260                USART2_IRQHandler
                0x08003260                I2C2_ER_IRQHandler
                0x08003260                DMA2_Stream1_IRQHandler
                0x08003260                CAN1_SCE_IRQHandler
                0x08003260                FLASH_IRQHandler
                0x08003260                DMA2_Stream4_IRQHandler
                0x08003260                USART1_IRQHandler
                0x08003260                OTG_FS_IRQHandler
                0x08003260                SPI3_IRQHandler
                0x08003260                DMA1_Stream4_IRQHandler
                0x08003260                I2C1_ER_IRQHandler
                0x08003260                DMA2_Stream6_IRQHandler
                0x08003260                DMA1_Stream3_IRQHandler
 *fill*         0x08003262        0x2 
 .text.__libc_init_array
                0x08003264       0x48 d:/11.2 2022.02/bin/../lib/gcc/arm-none-eabi/11.2.1/thumb/v7e-m+fp/hard\libc.a(lib_a-init.o)
                0x08003264                __libc_init_array
 .text.memset   0x080032ac       0xa4 d:/11.2 2022.02/bin/../lib/gcc/arm-none-eabi/11.2.1/thumb/v7e-m+fp/hard\libc.a(lib_a-memset.o)
                0x080032ac                memset
 .text.vsprintf
                0x08003350       0x38 d:/11.2 2022.02/bin/../lib/gcc/arm-none-eabi/11.2.1/thumb/v7e-m+fp/hard\libc.a(lib_a-vsprintf.o)
                0x08003350                vsprintf
 .text._svfprintf_r
                0x08003388     0x1be0 d:/11.2 2022.02/bin/../lib/gcc/arm-none-eabi/11.2.1/thumb/v7e-m+fp/hard\libc.a(lib_a-svfprintf.o)
                0x08003388                _svfprintf_r
 .text._wcrtomb_r
                0x08004f68       0x4c d:/11.2 2022.02/bin/../lib/gcc/arm-none-eabi/11.2.1/thumb/v7e-m+fp/hard\libc.a(lib_a-wcrtomb.o)
                0x08004f68                _wcrtomb_r
 .text._wcsrtombs_r
                0x08004fb4       0x18 d:/11.2 2022.02/bin/../lib/gcc/arm-none-eabi/11.2.1/thumb/v7e-m+fp/hard\libc.a(lib_a-wcsrtombs.o)
                0x08004fb4                _wcsrtombs_r
 .text.quorem   0x08004fcc      0x128 d:/11.2 2022.02/bin/../lib/gcc/arm-none-eabi/11.2.1/thumb/v7e-m+fp/hard\libc.a(lib_a-dtoa.o)
 *fill*         0x080050f4        0x4 
 .text._dtoa_r  0x080050f8      0xf3c d:/11.2 2022.02/bin/../lib/gcc/arm-none-eabi/11.2.1/thumb/v7e-m+fp/hard\libc.a(lib_a-dtoa.o)
                0x080050f8                _dtoa_r
 .text._malloc_trim_r
                0x08006034       0xa0 d:/11.2 2022.02/bin/../lib/gcc/arm-none-eabi/11.2.1/thumb/v7e-m+fp/hard\libc.a(lib_a-freer.o)
                0x08006034                _malloc_trim_r
 .text._free_r  0x080060d4      0x20c d:/11.2 2022.02/bin/../lib/gcc/arm-none-eabi/11.2.1/thumb/v7e-m+fp/hard\libc.a(lib_a-freer.o)
                0x080060d4                _free_r
 .text._localeconv_r
                0x080062e0        0x8 d:/11.2 2022.02/bin/../lib/gcc/arm-none-eabi/11.2.1/thumb/v7e-m+fp/hard\libc.a(lib_a-localeconv.o)
                0x080062e0                _localeconv_r
 .text.__locale_mb_cur_max
                0x080062e8        0xc d:/11.2 2022.02/bin/../lib/gcc/arm-none-eabi/11.2.1/thumb/v7e-m+fp/hard\libc.a(lib_a-locale.o)
                0x080062e8                __locale_mb_cur_max
 .text._malloc_r
                0x080062f4      0x560 d:/11.2 2022.02/bin/../lib/gcc/arm-none-eabi/11.2.1/thumb/v7e-m+fp/hard\libc.a(lib_a-mallocr.o)
                0x080062f4                _malloc_r
 .text.__ascii_mbtowc
                0x08006854       0x2c d:/11.2 2022.02/bin/../lib/gcc/arm-none-eabi/11.2.1/thumb/v7e-m+fp/hard\libc.a(lib_a-mbtowc_r.o)
                0x08006854                __ascii_mbtowc
 .text.__malloc_lock
                0x08006880        0x4 d:/11.2 2022.02/bin/../lib/gcc/arm-none-eabi/11.2.1/thumb/v7e-m+fp/hard\libc.a(lib_a-mlock.o)
                0x08006880                __malloc_lock
 .text.__malloc_unlock
                0x08006884        0x4 d:/11.2 2022.02/bin/../lib/gcc/arm-none-eabi/11.2.1/thumb/v7e-m+fp/hard\libc.a(lib_a-mlock.o)
                0x08006884                __malloc_unlock
 .text._Balloc  0x08006888       0x4c d:/11.2 2022.02/bin/../lib/gcc/arm-none-eabi/11.2.1/thumb/v7e-m+fp/hard\libc.a(lib_a-mprec.o)
                0x08006888                _Balloc
 .text._Bfree   0x080068d4       0x14 d:/11.2 2022.02/bin/../lib/gcc/arm-none-eabi/11.2.1/thumb/v7e-m+fp/hard\libc.a(lib_a-mprec.o)
                0x080068d4                _Bfree
 .text.__multadd
                0x080068e8       0xa4 d:/11.2 2022.02/bin/../lib/gcc/arm-none-eabi/11.2.1/thumb/v7e-m+fp/hard\libc.a(lib_a-mprec.o)
                0x080068e8                __multadd
 .text.__hi0bits
                0x0800698c       0x40 d:/11.2 2022.02/bin/../lib/gcc/arm-none-eabi/11.2.1/thumb/v7e-m+fp/hard\libc.a(lib_a-mprec.o)
                0x0800698c                __hi0bits
 .text.__lo0bits
                0x080069cc       0x60 d:/11.2 2022.02/bin/../lib/gcc/arm-none-eabi/11.2.1/thumb/v7e-m+fp/hard\libc.a(lib_a-mprec.o)
                0x080069cc                __lo0bits
 .text.__i2b    0x08006a2c       0x5c d:/11.2 2022.02/bin/../lib/gcc/arm-none-eabi/11.2.1/thumb/v7e-m+fp/hard\libc.a(lib_a-mprec.o)
                0x08006a2c                __i2b
 .text.__multiply
                0x08006a88      0x15c d:/11.2 2022.02/bin/../lib/gcc/arm-none-eabi/11.2.1/thumb/v7e-m+fp/hard\libc.a(lib_a-mprec.o)
                0x08006a88                __multiply
 .text.__pow5mult
                0x08006be4       0xc0 d:/11.2 2022.02/bin/../lib/gcc/arm-none-eabi/11.2.1/thumb/v7e-m+fp/hard\libc.a(lib_a-mprec.o)
                0x08006be4                __pow5mult
 .text.__lshift
                0x08006ca4       0xf0 d:/11.2 2022.02/bin/../lib/gcc/arm-none-eabi/11.2.1/thumb/v7e-m+fp/hard\libc.a(lib_a-mprec.o)
                0x08006ca4                __lshift
 .text.__mcmp   0x08006d94       0x44 d:/11.2 2022.02/bin/../lib/gcc/arm-none-eabi/11.2.1/thumb/v7e-m+fp/hard\libc.a(lib_a-mprec.o)
                0x08006d94                __mcmp
 .text.__mdiff  0x08006dd8      0x154 d:/11.2 2022.02/bin/../lib/gcc/arm-none-eabi/11.2.1/thumb/v7e-m+fp/hard\libc.a(lib_a-mprec.o)
                0x08006dd8                __mdiff
 .text.__d2b    0x08006f2c       0xd4 d:/11.2 2022.02/bin/../lib/gcc/arm-none-eabi/11.2.1/thumb/v7e-m+fp/hard\libc.a(lib_a-mprec.o)
                0x08006f2c                __d2b
 .text._sbrk_r  0x08007000       0x24 d:/11.2 2022.02/bin/../lib/gcc/arm-none-eabi/11.2.1/thumb/v7e-m+fp/hard\libc.a(lib_a-sbrkr.o)
                0x08007000                _sbrk_r
 .text.frexp    0x08007024       0x6c d:/11.2 2022.02/bin/../lib/gcc/arm-none-eabi/11.2.1/thumb/v7e-m+fp/hard\libc.a(lib_a-s_frexp.o)
                0x08007024                frexp
 .text.strncpy  0x08007090       0x64 d:/11.2 2022.02/bin/../lib/gcc/arm-none-eabi/11.2.1/thumb/v7e-m+fp/hard\libc.a(lib_a-strncpy.o)
                0x08007090                strncpy
 .text.__ssprint_r
                0x080070f4      0x100 d:/11.2 2022.02/bin/../lib/gcc/arm-none-eabi/11.2.1/thumb/v7e-m+fp/hard\libc.a(lib_a-svfiprintf.o)
                0x080070f4                __ssprint_r
 .text._wcsnrtombs_l
                0x080071f4      0x108 d:/11.2 2022.02/bin/../lib/gcc/arm-none-eabi/11.2.1/thumb/v7e-m+fp/hard\libc.a(lib_a-wcsnrtombs.o)
                0x080071f4                _wcsnrtombs_l
 .text._wcsnrtombs_r
                0x080072fc       0x24 d:/11.2 2022.02/bin/../lib/gcc/arm-none-eabi/11.2.1/thumb/v7e-m+fp/hard\libc.a(lib_a-wcsnrtombs.o)
                0x080072fc                _wcsnrtombs_r
 .text.__ascii_wctomb
                0x08007320       0x1c d:/11.2 2022.02/bin/../lib/gcc/arm-none-eabi/11.2.1/thumb/v7e-m+fp/hard\libc.a(lib_a-wctomb_r.o)
                0x08007320                __ascii_wctomb
 .text.__assert_func
                0x0800733c       0x40 d:/11.2 2022.02/bin/../lib/gcc/arm-none-eabi/11.2.1/thumb/v7e-m+fp/hard\libc.a(lib_a-assert.o)
                0x0800733c                __assert_func
 .text._calloc_r
                0x0800737c       0x78 d:/11.2 2022.02/bin/../lib/gcc/arm-none-eabi/11.2.1/thumb/v7e-m+fp/hard\libc.a(lib_a-callocr.o)
                0x0800737c                _calloc_r
 .text.__errno  0x080073f4        0xc d:/11.2 2022.02/bin/../lib/gcc/arm-none-eabi/11.2.1/thumb/v7e-m+fp/hard\libc.a(lib_a-errno.o)
                0x080073f4                __errno
 .text.fiprintf
                0x08007400       0x28 d:/11.2 2022.02/bin/../lib/gcc/arm-none-eabi/11.2.1/thumb/v7e-m+fp/hard\libc.a(lib_a-fiprintf.o)
                0x08007400                fiprintf
 .text.memmove  0x08007428       0xf8 d:/11.2 2022.02/bin/../lib/gcc/arm-none-eabi/11.2.1/thumb/v7e-m+fp/hard\libc.a(lib_a-memmove.o)
                0x08007428                memmove
 .text._realloc_r
                0x08007520      0x3d8 d:/11.2 2022.02/bin/../lib/gcc/arm-none-eabi/11.2.1/thumb/v7e-m+fp/hard\libc.a(lib_a-reallocr.o)
                0x08007520                _realloc_r
 .text.__sprint_r.part.0
                0x080078f8       0x78 d:/11.2 2022.02/bin/../lib/gcc/arm-none-eabi/11.2.1/thumb/v7e-m+fp/hard\libc.a(lib_a-vfiprintf.o)
 .text._vfiprintf_r
                0x08007970      0xef0 d:/11.2 2022.02/bin/../lib/gcc/arm-none-eabi/11.2.1/thumb/v7e-m+fp/hard\libc.a(lib_a-vfiprintf.o)
                0x08007970                _vfiprintf_r
 .text.__sbprintf
                0x08008860       0x6c d:/11.2 2022.02/bin/../lib/gcc/arm-none-eabi/11.2.1/thumb/v7e-m+fp/hard\libc.a(lib_a-vfiprintf.o)
 .text.__swsetup_r
                0x080088cc       0xd4 d:/11.2 2022.02/bin/../lib/gcc/arm-none-eabi/11.2.1/thumb/v7e-m+fp/hard\libc.a(lib_a-wsetup.o)
                0x080088cc                __swsetup_r
 .text.abort    0x080089a0       0x10 d:/11.2 2022.02/bin/../lib/gcc/arm-none-eabi/11.2.1/thumb/v7e-m+fp/hard\libc.a(lib_a-abort.o)
                0x080089a0                abort
 .text.__sflush_r
                0x080089b0      0x130 d:/11.2 2022.02/bin/../lib/gcc/arm-none-eabi/11.2.1/thumb/v7e-m+fp/hard\libc.a(lib_a-fflush.o)
                0x080089b0                __sflush_r
 .text._fflush_r
                0x08008ae0       0x2c d:/11.2 2022.02/bin/../lib/gcc/arm-none-eabi/11.2.1/thumb/v7e-m+fp/hard\libc.a(lib_a-fflush.o)
                0x08008ae0                _fflush_r
 .text._cleanup_r
                0x08008b0c        0xc d:/11.2 2022.02/bin/../lib/gcc/arm-none-eabi/11.2.1/thumb/v7e-m+fp/hard\libc.a(lib_a-findfp.o)
                0x08008b0c                _cleanup_r
 .text.__sinit.part.0
                0x08008b18       0xd8 d:/11.2 2022.02/bin/../lib/gcc/arm-none-eabi/11.2.1/thumb/v7e-m+fp/hard\libc.a(lib_a-findfp.o)
 .text.__sinit  0x08008bf0        0xc d:/11.2 2022.02/bin/../lib/gcc/arm-none-eabi/11.2.1/thumb/v7e-m+fp/hard\libc.a(lib_a-findfp.o)
                0x08008bf0                __sinit
 .text.__sfp_lock_acquire
                0x08008bfc        0x4 d:/11.2 2022.02/bin/../lib/gcc/arm-none-eabi/11.2.1/thumb/v7e-m+fp/hard\libc.a(lib_a-findfp.o)
                0x08008bfc                __sfp_lock_acquire
 .text.__sfp_lock_release
                0x08008c00        0x4 d:/11.2 2022.02/bin/../lib/gcc/arm-none-eabi/11.2.1/thumb/v7e-m+fp/hard\libc.a(lib_a-findfp.o)
                0x08008c00                __sfp_lock_release
 .text.__fputwc
                0x08008c04       0xa8 d:/11.2 2022.02/bin/../lib/gcc/arm-none-eabi/11.2.1/thumb/v7e-m+fp/hard\libc.a(lib_a-fputwc.o)
                0x08008c04                __fputwc
 .text._fputwc_r
                0x08008cac       0x28 d:/11.2 2022.02/bin/../lib/gcc/arm-none-eabi/11.2.1/thumb/v7e-m+fp/hard\libc.a(lib_a-fputwc.o)
                0x08008cac                _fputwc_r
 .text.__sfvwrite_r
                0x08008cd4      0x2f4 d:/11.2 2022.02/bin/../lib/gcc/arm-none-eabi/11.2.1/thumb/v7e-m+fp/hard\libc.a(lib_a-fvwrite.o)
                0x08008cd4                __sfvwrite_r
 .text._fwalk_reent
                0x08008fc8       0x48 d:/11.2 2022.02/bin/../lib/gcc/arm-none-eabi/11.2.1/thumb/v7e-m+fp/hard\libc.a(lib_a-fwalk.o)
                0x08008fc8                _fwalk_reent
 .text.__smakebuf_r
                0x08009010       0xe0 d:/11.2 2022.02/bin/../lib/gcc/arm-none-eabi/11.2.1/thumb/v7e-m+fp/hard\libc.a(lib_a-makebuf.o)
                0x08009010                __smakebuf_r
 .text.raise    0x080090f0       0x5c d:/11.2 2022.02/bin/../lib/gcc/arm-none-eabi/11.2.1/thumb/v7e-m+fp/hard\libc.a(lib_a-signal.o)
                0x080090f0                raise
 .text._kill_r  0x0800914c       0x2c d:/11.2 2022.02/bin/../lib/gcc/arm-none-eabi/11.2.1/thumb/v7e-m+fp/hard\libc.a(lib_a-signalr.o)
                0x0800914c                _kill_r
 .text._getpid_r
                0x08009178        0x4 d:/11.2 2022.02/bin/../lib/gcc/arm-none-eabi/11.2.1/thumb/v7e-m+fp/hard\libc.a(lib_a-signalr.o)
                0x08009178                _getpid_r
 .text.__sread  0x0800917c       0x24 d:/11.2 2022.02/bin/../lib/gcc/arm-none-eabi/11.2.1/thumb/v7e-m+fp/hard\libc.a(lib_a-stdio.o)
                0x0800917c                __sread
 .text.__swrite
                0x080091a0       0x40 d:/11.2 2022.02/bin/../lib/gcc/arm-none-eabi/11.2.1/thumb/v7e-m+fp/hard\libc.a(lib_a-stdio.o)
                0x080091a0                __swrite
 .text.__sseek  0x080091e0       0x20 d:/11.2 2022.02/bin/../lib/gcc/arm-none-eabi/11.2.1/thumb/v7e-m+fp/hard\libc.a(lib_a-stdio.o)
                0x080091e0                __sseek
 .text.__sclose
                0x08009200        0x8 d:/11.2 2022.02/bin/../lib/gcc/arm-none-eabi/11.2.1/thumb/v7e-m+fp/hard\libc.a(lib_a-stdio.o)
                0x08009200                __sclose
 .text.__swbuf_r
                0x08009208       0xb0 d:/11.2 2022.02/bin/../lib/gcc/arm-none-eabi/11.2.1/thumb/v7e-m+fp/hard\libc.a(lib_a-wbuf.o)
                0x08009208                __swbuf_r
 .text._write_r
                0x080092b8       0x2c d:/11.2 2022.02/bin/../lib/gcc/arm-none-eabi/11.2.1/thumb/v7e-m+fp/hard\libc.a(lib_a-writer.o)
                0x080092b8                _write_r
 .text._close_r
                0x080092e4       0x24 d:/11.2 2022.02/bin/../lib/gcc/arm-none-eabi/11.2.1/thumb/v7e-m+fp/hard\libc.a(lib_a-closer.o)
                0x080092e4                _close_r
 .text._fclose_r
                0x08009308       0x88 d:/11.2 2022.02/bin/../lib/gcc/arm-none-eabi/11.2.1/thumb/v7e-m+fp/hard\libc.a(lib_a-fclose.o)
                0x08009308                _fclose_r
 .text._fstat_r
                0x08009390       0x2c d:/11.2 2022.02/bin/../lib/gcc/arm-none-eabi/11.2.1/thumb/v7e-m+fp/hard\libc.a(lib_a-fstatr.o)
                0x08009390                _fstat_r
 .text._isatty_r
                0x080093bc       0x24 d:/11.2 2022.02/bin/../lib/gcc/arm-none-eabi/11.2.1/thumb/v7e-m+fp/hard\libc.a(lib_a-isattyr.o)
                0x080093bc                _isatty_r
 .text._lseek_r
                0x080093e0       0x2c d:/11.2 2022.02/bin/../lib/gcc/arm-none-eabi/11.2.1/thumb/v7e-m+fp/hard\libc.a(lib_a-lseekr.o)
                0x080093e0                _lseek_r
 .text._read_r  0x0800940c       0x2c d:/11.2 2022.02/bin/../lib/gcc/arm-none-eabi/11.2.1/thumb/v7e-m+fp/hard\libc.a(lib_a-readr.o)
                0x0800940c                _read_r
 .text._close   0x08009438       0x10 d:/11.2 2022.02/bin/../lib/gcc/arm-none-eabi/11.2.1/thumb/v7e-m+fp/hard\libnosys.a(close.o)
                0x08009438                _close
 .text._fstat   0x08009448       0x10 d:/11.2 2022.02/bin/../lib/gcc/arm-none-eabi/11.2.1/thumb/v7e-m+fp/hard\libnosys.a(fstat.o)
                0x08009448                _fstat
 .text._getpid  0x08009458       0x10 d:/11.2 2022.02/bin/../lib/gcc/arm-none-eabi/11.2.1/thumb/v7e-m+fp/hard\libnosys.a(getpid.o)
                0x08009458                _getpid
 .text._isatty  0x08009468       0x10 d:/11.2 2022.02/bin/../lib/gcc/arm-none-eabi/11.2.1/thumb/v7e-m+fp/hard\libnosys.a(isatty.o)
                0x08009468                _isatty
 .text._kill    0x08009478       0x10 d:/11.2 2022.02/bin/../lib/gcc/arm-none-eabi/11.2.1/thumb/v7e-m+fp/hard\libnosys.a(kill.o)
                0x08009478                _kill
 .text._lseek   0x08009488       0x10 d:/11.2 2022.02/bin/../lib/gcc/arm-none-eabi/11.2.1/thumb/v7e-m+fp/hard\libnosys.a(lseek.o)
                0x08009488                _lseek
 .text._read    0x08009498       0x10 d:/11.2 2022.02/bin/../lib/gcc/arm-none-eabi/11.2.1/thumb/v7e-m+fp/hard\libnosys.a(read.o)
                0x08009498                _read
 .text._sbrk    0x080094a8       0x1c d:/11.2 2022.02/bin/../lib/gcc/arm-none-eabi/11.2.1/thumb/v7e-m+fp/hard\libnosys.a(sbrk.o)
                0x080094a8                _sbrk
 .text._write   0x080094c4       0x10 d:/11.2 2022.02/bin/../lib/gcc/arm-none-eabi/11.2.1/thumb/v7e-m+fp/hard\libnosys.a(write.o)
                0x080094c4                _write
 .text._exit    0x080094d4        0x4 d:/11.2 2022.02/bin/../lib/gcc/arm-none-eabi/11.2.1/thumb/v7e-m+fp/hard\libnosys.a(_exit.o)
                0x080094d4                _exit
 .text.__udivmoddi4
                0x080094d8      0x2c8 d:/11.2 2022.02/bin/../lib/gcc/arm-none-eabi/11.2.1/thumb/v7e-m+fp/hard\libgcc.a(_udivmoddi4.o)
                0x080094d8                __udivmoddi4
 *(.glue_7)
 .glue_7        0x080097a0        0x0 linker stubs
 *(.glue_7t)
 .glue_7t       0x080097a0        0x0 linker stubs
 *(.eh_frame)
 .eh_frame      0x080097a0        0x0 d:/11.2 2022.02/bin/../lib/gcc/arm-none-eabi/11.2.1/thumb/v7e-m+fp/hard/crtbegin.o
 *(.init)
 .init          0x080097a0        0x4 d:/11.2 2022.02/bin/../lib/gcc/arm-none-eabi/11.2.1/thumb/v7e-m+fp/hard/crti.o
                0x080097a0                _init
 .init          0x080097a4        0x8 d:/11.2 2022.02/bin/../lib/gcc/arm-none-eabi/11.2.1/thumb/v7e-m+fp/hard/crtn.o
 *(.fini)
 .fini          0x080097ac        0x4 d:/11.2 2022.02/bin/../lib/gcc/arm-none-eabi/11.2.1/thumb/v7e-m+fp/hard/crti.o
                0x080097ac                _fini
 .fini          0x080097b0        0x8 d:/11.2 2022.02/bin/../lib/gcc/arm-none-eabi/11.2.1/thumb/v7e-m+fp/hard/crtn.o
                0x080097b8                . = ALIGN (0x4)
                0x080097b8                _etext = .

.vfp11_veneer   0x080097b8        0x0
 .vfp11_veneer  0x080097b8        0x0 linker stubs

.v4_bx          0x080097b8        0x0
 .v4_bx         0x080097b8        0x0 linker stubs

.iplt           0x080097b8        0x0
 .iplt          0x080097b8        0x0 d:/11.2 2022.02/bin/../lib/gcc/arm-none-eabi/11.2.1/thumb/v7e-m+fp/hard/crtbegin.o

.rodata         0x080097b8      0x410
                0x080097b8                . = ALIGN (0x4)
 *(.rodata)
 *(.rodata*)
 .rodata.main.str1.4
                0x080097b8        0x7 build/main.o
 *fill*         0x080097bf        0x1 
 .rodata.flagBitshiftOffset.0
                0x080097c0        0x8 build/stm32f4xx_hal_dma.o
 .rodata.AHBPrescTable
                0x080097c8       0x10 build/system_stm32f4xx.o
                0x080097c8                AHBPrescTable
 .rodata.APBPrescTable
                0x080097d8        0x8 build/system_stm32f4xx.o
                0x080097d8                APBPrescTable
 .rodata._svfprintf_r.str1.4
                0x080097e0       0x42 d:/11.2 2022.02/bin/../lib/gcc/arm-none-eabi/11.2.1/thumb/v7e-m+fp/hard\libc.a(lib_a-svfprintf.o)
 *fill*         0x08009822        0x2 
 .rodata.blanks.1
                0x08009824       0x10 d:/11.2 2022.02/bin/../lib/gcc/arm-none-eabi/11.2.1/thumb/v7e-m+fp/hard\libc.a(lib_a-svfprintf.o)
 .rodata.zeroes.0
                0x08009834       0x10 d:/11.2 2022.02/bin/../lib/gcc/arm-none-eabi/11.2.1/thumb/v7e-m+fp/hard\libc.a(lib_a-svfprintf.o)
 .rodata._dtoa_r.str1.4
                0x08009844       0x7d d:/11.2 2022.02/bin/../lib/gcc/arm-none-eabi/11.2.1/thumb/v7e-m+fp/hard\libc.a(lib_a-dtoa.o)
                                 0x81 (size before relaxing)
 *fill*         0x080098c1        0x3 
 .rodata.str1.4
                0x080098c4       0x48 d:/11.2 2022.02/bin/../lib/gcc/arm-none-eabi/11.2.1/thumb/v7e-m+fp/hard\libc.a(lib_a-locale.o)
                                 0x4c (size before relaxing)
 .rodata.__multadd.str1.4
                0x0800990c       0x5a d:/11.2 2022.02/bin/../lib/gcc/arm-none-eabi/11.2.1/thumb/v7e-m+fp/hard\libc.a(lib_a-mprec.o)
                                 0x6e (size before relaxing)
 *fill*         0x08009966        0x2 
 .rodata.__mprec_bigtens
                0x08009968       0x28 d:/11.2 2022.02/bin/../lib/gcc/arm-none-eabi/11.2.1/thumb/v7e-m+fp/hard\libc.a(lib_a-mprec.o)
                0x08009968                __mprec_bigtens
 .rodata.__mprec_tens
                0x08009990       0xc8 d:/11.2 2022.02/bin/../lib/gcc/arm-none-eabi/11.2.1/thumb/v7e-m+fp/hard\libc.a(lib_a-mprec.o)
                0x08009990                __mprec_tens
 .rodata.p05.0  0x08009a58        0xc d:/11.2 2022.02/bin/../lib/gcc/arm-none-eabi/11.2.1/thumb/v7e-m+fp/hard\libc.a(lib_a-mprec.o)
 .rodata.__assert_func.str1.4
                0x08009a64       0x3f d:/11.2 2022.02/bin/../lib/gcc/arm-none-eabi/11.2.1/thumb/v7e-m+fp/hard\libc.a(lib_a-assert.o)
                                 0x43 (size before relaxing)
 *fill*         0x08009aa3        0x1 
 .rodata._ctype_
                0x08009aa4      0x101 d:/11.2 2022.02/bin/../lib/gcc/arm-none-eabi/11.2.1/thumb/v7e-m+fp/hard\libc.a(lib_a-ctype_.o)
                0x08009aa4                _ctype_
 .rodata._vfiprintf_r.str1.4
                0x08009ba5       0x2f d:/11.2 2022.02/bin/../lib/gcc/arm-none-eabi/11.2.1/thumb/v7e-m+fp/hard\libc.a(lib_a-vfiprintf.o)
 *fill*         0x08009ba5        0x3 
 .rodata.blanks.1
                0x08009ba8       0x10 d:/11.2 2022.02/bin/../lib/gcc/arm-none-eabi/11.2.1/thumb/v7e-m+fp/hard\libc.a(lib_a-vfiprintf.o)
 .rodata.zeroes.0
                0x08009bb8       0x10 d:/11.2 2022.02/bin/../lib/gcc/arm-none-eabi/11.2.1/thumb/v7e-m+fp/hard\libc.a(lib_a-vfiprintf.o)
                0x08009bc8                . = ALIGN (0x4)

.ARM.extab
 *(.ARM.extab* .gnu.linkonce.armextab.*)

.ARM            0x08009bc8        0x8
                0x08009bc8                __exidx_start = .
 *(.ARM.exidx*)
 .ARM.exidx.text.__udivmoddi4
                0x08009bc8        0x8 d:/11.2 2022.02/bin/../lib/gcc/arm-none-eabi/11.2.1/thumb/v7e-m+fp/hard\libgcc.a(_udivmoddi4.o)
                0x08009bd0                __exidx_end = .

.rel.dyn        0x08009bd0        0x0
 .rel.iplt      0x08009bd0        0x0 d:/11.2 2022.02/bin/../lib/gcc/arm-none-eabi/11.2.1/thumb/v7e-m+fp/hard/crtbegin.o

.preinit_array  0x08009bd0        0x0
                0x08009bd0                PROVIDE (__preinit_array_start = .)
 *(.preinit_array*)
                0x08009bd0                PROVIDE (__preinit_array_end = .)

.init_array     0x08009bd0        0x4
                0x08009bd0                PROVIDE (__init_array_start = .)
 *(SORT_BY_NAME(.init_array.*))
 *(.init_array*)
 .init_array    0x08009bd0        0x4 d:/11.2 2022.02/bin/../lib/gcc/arm-none-eabi/11.2.1/thumb/v7e-m+fp/hard/crtbegin.o
                0x08009bd4                PROVIDE (__init_array_end = .)

.fini_array     0x08009bd4        0x4
                [!provide]                PROVIDE (__fini_array_start = .)
 *(SORT_BY_NAME(.fini_array.*))
 *(.fini_array*)
 .fini_array    0x08009bd4        0x4 d:/11.2 2022.02/bin/../lib/gcc/arm-none-eabi/11.2.1/thumb/v7e-m+fp/hard/crtbegin.o
                [!provide]                PROVIDE (__fini_array_end = .)
                0x08009bd8                _sidata = LOADADDR (.data)

.data           0x20000000      0x9b4 load address 0x08009bd8
                0x20000000                . = ALIGN (0x4)
                0x20000000                _sdata = .
 *(.data)
 *(.data*)
 .data.uwTickFreq
                0x20000000        0x1 build/stm32f4xx_hal.o
                0x20000000                uwTickFreq
 *fill*         0x20000001        0x3 
 .data.uwTickPrio
                0x20000004        0x4 build/stm32f4xx_hal.o
                0x20000004                uwTickPrio
 .data.SystemCoreClock
                0x20000008        0x4 build/system_stm32f4xx.o
                0x20000008                SystemCoreClock
 .data._impure_ptr
                0x2000000c        0x4 d:/11.2 2022.02/bin/../lib/gcc/arm-none-eabi/11.2.1/thumb/v7e-m+fp/hard\libc.a(lib_a-impure.o)
                0x2000000c                _impure_ptr
 .data.impure_data
                0x20000010      0x428 d:/11.2 2022.02/bin/../lib/gcc/arm-none-eabi/11.2.1/thumb/v7e-m+fp/hard\libc.a(lib_a-impure.o)
 .data.__global_locale
                0x20000438      0x16c d:/11.2 2022.02/bin/../lib/gcc/arm-none-eabi/11.2.1/thumb/v7e-m+fp/hard\libc.a(lib_a-locale.o)
                0x20000438                __global_locale
 .data.__malloc_av_
                0x200005a4      0x408 d:/11.2 2022.02/bin/../lib/gcc/arm-none-eabi/11.2.1/thumb/v7e-m+fp/hard\libc.a(lib_a-mallocr.o)
                0x200005a4                __malloc_av_
 .data.__malloc_sbrk_base
                0x200009ac        0x4 d:/11.2 2022.02/bin/../lib/gcc/arm-none-eabi/11.2.1/thumb/v7e-m+fp/hard\libc.a(lib_a-mallocr.o)
                0x200009ac                __malloc_sbrk_base
 .data.__malloc_trim_threshold
                0x200009b0        0x4 d:/11.2 2022.02/bin/../lib/gcc/arm-none-eabi/11.2.1/thumb/v7e-m+fp/hard\libc.a(lib_a-mallocr.o)
                0x200009b0                __malloc_trim_threshold
                0x200009b4                . = ALIGN (0x4)
                0x200009b4                _edata = .
                0x0800a58c                _siccmram = LOADADDR (.ccmram)

.tm_clone_table
                0x200009b4        0x0 load address 0x0800a58c
 .tm_clone_table
                0x200009b4        0x0 d:/11.2 2022.02/bin/../lib/gcc/arm-none-eabi/11.2.1/thumb/v7e-m+fp/hard/crtbegin.o
 .tm_clone_table
                0x200009b4        0x0 d:/11.2 2022.02/bin/../lib/gcc/arm-none-eabi/11.2.1/thumb/v7e-m+fp/hard/crtend.o

.igot.plt       0x200009b4        0x0 load address 0x0800a58c
 .igot.plt      0x200009b4        0x0 d:/11.2 2022.02/bin/../lib/gcc/arm-none-eabi/11.2.1/thumb/v7e-m+fp/hard/crtbegin.o

.ccmram         0x10000000        0x0 load address 0x0800a58c
                0x10000000                . = ALIGN (0x4)
                0x10000000                _sccmram = .
 *(.ccmram)
 *(.ccmram*)
                0x10000000                . = ALIGN (0x4)
                0x10000000                _eccmram = .
                0x10000000                . = ALIGN (0x4)

.bss            0x200009b8      0x4b4
                0x200009b8                _sbss = .
                0x200009b8                __bss_start__ = _sbss
 *(.bss)
 *(.bss*)
 .bss.completed.1
                0x200009b8        0x1 d:/11.2 2022.02/bin/../lib/gcc/arm-none-eabi/11.2.1/thumb/v7e-m+fp/hard/crtbegin.o
 *fill*         0x200009b9        0x3 
 .bss.object.0  0x200009bc       0x18 d:/11.2 2022.02/bin/../lib/gcc/arm-none-eabi/11.2.1/thumb/v7e-m+fp/hard/crtbegin.o
 *fill*         0x200009d4        0x4 
 .bss.wheel_lb  0x200009d8       0x58 build/main.o
                0x200009d8                wheel_lb
 .bss.wheel_lf  0x20000a30       0x58 build/main.o
                0x20000a30                wheel_lf
 .bss.wheel_rb  0x20000a88       0x58 build/main.o
                0x20000a88                wheel_rb
 .bss.wheel_rf  0x20000ae0       0x58 build/main.o
                0x20000ae0                wheel_rf
 .bss.uwTick    0x20000b38        0x4 build/stm32f4xx_hal.o
                0x20000b38                uwTick
 .bss.htim1     0x20000b3c       0x48 build/tim.o
                0x20000b3c                htim1
 .bss.htim3     0x20000b84       0x48 build/tim.o
                0x20000b84                htim3
 .bss.htim4     0x20000bcc       0x48 build/tim.o
                0x20000bcc                htim4
 .bss.htim5     0x20000c14       0x48 build/tim.o
                0x20000c14                htim5
 .bss.htim8     0x20000c5c       0x48 build/tim.o
                0x20000c5c                htim8
 .bss.hdma_uart4_rx
                0x20000ca4       0x60 build/usart.o
                0x20000ca4                hdma_uart4_rx
 .bss.hdma_uart5_rx
                0x20000d04       0x60 build/usart.o
                0x20000d04                hdma_uart5_rx
 .bss.huart2    0x20000d64       0x44 build/usart.o
                0x20000d64                huart2
 .bss.huart4    0x20000da8       0x44 build/usart.o
                0x20000da8                huart4
 .bss.huart5    0x20000dec       0x44 build/usart.o
                0x20000dec                huart5
 .bss.__malloc_current_mallinfo
                0x20000e30       0x28 d:/11.2 2022.02/bin/../lib/gcc/arm-none-eabi/11.2.1/thumb/v7e-m+fp/hard\libc.a(lib_a-mallocr.o)
                0x20000e30                __malloc_current_mallinfo
 .bss.__malloc_max_sbrked_mem
                0x20000e58        0x4 d:/11.2 2022.02/bin/../lib/gcc/arm-none-eabi/11.2.1/thumb/v7e-m+fp/hard\libc.a(lib_a-mallocr.o)
                0x20000e58                __malloc_max_sbrked_mem
 .bss.__malloc_max_total_mem
                0x20000e5c        0x4 d:/11.2 2022.02/bin/../lib/gcc/arm-none-eabi/11.2.1/thumb/v7e-m+fp/hard\libc.a(lib_a-mallocr.o)
                0x20000e5c                __malloc_max_total_mem
 .bss.__malloc_top_pad
                0x20000e60        0x4 d:/11.2 2022.02/bin/../lib/gcc/arm-none-eabi/11.2.1/thumb/v7e-m+fp/hard\libc.a(lib_a-mallocr.o)
                0x20000e60                __malloc_top_pad
 .bss.errno     0x20000e64        0x4 d:/11.2 2022.02/bin/../lib/gcc/arm-none-eabi/11.2.1/thumb/v7e-m+fp/hard\libc.a(lib_a-reent.o)
                0x20000e64                errno
 .bss.heap_end.0
                0x20000e68        0x4 d:/11.2 2022.02/bin/../lib/gcc/arm-none-eabi/11.2.1/thumb/v7e-m+fp/hard\libnosys.a(sbrk.o)
 *(COMMON)
                0x20000e6c                . = ALIGN (0x4)
                0x20000e6c                _ebss = .
                0x20000e6c                __bss_end__ = _ebss

._user_heap_stack
                0x20000e6c      0x604
                0x20000e70                . = ALIGN (0x8)
 *fill*         0x20000e6c        0x4 
                0x20000e70                PROVIDE (end = .)
                [!provide]                PROVIDE (_end = .)
                0x20001070                . = (. + _Min_Heap_Size)
 *fill*         0x20000e70      0x200 
                0x20001470                . = (. + _Min_Stack_Size)
 *fill*         0x20001070      0x400 
                0x20001470                . = ALIGN (0x8)

/DISCARD/
 libc.a(*)
 libm.a(*)
 libgcc.a(*)

.ARM.attributes
                0x00000000       0x30
 *(.ARM.attributes)
 .ARM.attributes
                0x00000000       0x1e d:/11.2 2022.02/bin/../lib/gcc/arm-none-eabi/11.2.1/thumb/v7e-m+fp/hard/crti.o
 .ARM.attributes
                0x0000001e       0x34 d:/11.2 2022.02/bin/../lib/gcc/arm-none-eabi/11.2.1/thumb/v7e-m+fp/hard/crtbegin.o
 .ARM.attributes
                0x00000052       0x34 build/main.o
 .ARM.attributes
                0x00000086       0x34 build/gpio.o
 .ARM.attributes
                0x000000ba       0x34 build/stm32f4xx_it.o
 .ARM.attributes
                0x000000ee       0x34 build/stm32f4xx_hal_msp.o
 .ARM.attributes
                0x00000122       0x34 build/stm32f4xx_hal_tim.o
 .ARM.attributes
                0x00000156       0x34 build/stm32f4xx_hal_tim_ex.o
 .ARM.attributes
                0x0000018a       0x34 build/stm32f4xx_hal_rcc.o
 .ARM.attributes
                0x000001be       0x34 build/stm32f4xx_hal_gpio.o
 .ARM.attributes
                0x000001f2       0x34 build/stm32f4xx_hal_dma.o
 .ARM.attributes
                0x00000226       0x34 build/stm32f4xx_hal_cortex.o
 .ARM.attributes
                0x0000025a       0x34 build/stm32f4xx_hal.o
 .ARM.attributes
                0x0000028e       0x34 build/system_stm32f4xx.o
 .ARM.attributes
                0x000002c2       0x34 build/dma.o
 .ARM.attributes
                0x000002f6       0x34 build/tim.o
 .ARM.attributes
                0x0000032a       0x34 build/usart.o
 .ARM.attributes
                0x0000035e       0x34 build/stm32f4xx_hal_uart.o
 .ARM.attributes
                0x00000392       0x34 build/pid.o
 .ARM.attributes
                0x000003c6       0x21 build/startup_stm32f407xx.o
 .ARM.attributes
                0x000003e7       0x34 d:/11.2 2022.02/bin/../lib/gcc/arm-none-eabi/11.2.1/thumb/v7e-m+fp/hard\libc.a(lib_a-impure.o)
 .ARM.attributes
                0x0000041b       0x34 d:/11.2 2022.02/bin/../lib/gcc/arm-none-eabi/11.2.1/thumb/v7e-m+fp/hard\libc.a(lib_a-init.o)
 .ARM.attributes
                0x0000044f       0x34 d:/11.2 2022.02/bin/../lib/gcc/arm-none-eabi/11.2.1/thumb/v7e-m+fp/hard\libc.a(lib_a-memset.o)
 .ARM.attributes
                0x00000483       0x1c d:/11.2 2022.02/bin/../lib/gcc/arm-none-eabi/11.2.1/thumb/v7e-m+fp/hard\libc.a(lib_a-strlen.o)
 .ARM.attributes
                0x0000049f       0x34 d:/11.2 2022.02/bin/../lib/gcc/arm-none-eabi/11.2.1/thumb/v7e-m+fp/hard\libc.a(lib_a-vsprintf.o)
 .ARM.attributes
                0x000004d3       0x34 d:/11.2 2022.02/bin/../lib/gcc/arm-none-eabi/11.2.1/thumb/v7e-m+fp/hard\libc.a(lib_a-svfprintf.o)
 .ARM.attributes
                0x00000507       0x34 d:/11.2 2022.02/bin/../lib/gcc/arm-none-eabi/11.2.1/thumb/v7e-m+fp/hard\libc.a(lib_a-wcrtomb.o)
 .ARM.attributes
                0x0000053b       0x34 d:/11.2 2022.02/bin/../lib/gcc/arm-none-eabi/11.2.1/thumb/v7e-m+fp/hard\libc.a(lib_a-wcsrtombs.o)
 .ARM.attributes
                0x0000056f       0x34 d:/11.2 2022.02/bin/../lib/gcc/arm-none-eabi/11.2.1/thumb/v7e-m+fp/hard\libc.a(lib_a-dtoa.o)
 .ARM.attributes
                0x000005a3       0x34 d:/11.2 2022.02/bin/../lib/gcc/arm-none-eabi/11.2.1/thumb/v7e-m+fp/hard\libc.a(lib_a-freer.o)
 .ARM.attributes
                0x000005d7       0x34 d:/11.2 2022.02/bin/../lib/gcc/arm-none-eabi/11.2.1/thumb/v7e-m+fp/hard\libc.a(lib_a-localeconv.o)
 .ARM.attributes
                0x0000060b       0x34 d:/11.2 2022.02/bin/../lib/gcc/arm-none-eabi/11.2.1/thumb/v7e-m+fp/hard\libc.a(lib_a-locale.o)
 .ARM.attributes
                0x0000063f       0x34 d:/11.2 2022.02/bin/../lib/gcc/arm-none-eabi/11.2.1/thumb/v7e-m+fp/hard\libc.a(lib_a-mallocr.o)
 .ARM.attributes
                0x00000673       0x34 d:/11.2 2022.02/bin/../lib/gcc/arm-none-eabi/11.2.1/thumb/v7e-m+fp/hard\libc.a(lib_a-mbtowc_r.o)
 .ARM.attributes
                0x000006a7       0x1c d:/11.2 2022.02/bin/../lib/gcc/arm-none-eabi/11.2.1/thumb/v7e-m+fp/hard\libc.a(lib_a-memchr.o)
 .ARM.attributes
                0x000006c3       0x1c d:/11.2 2022.02/bin/../lib/gcc/arm-none-eabi/11.2.1/thumb/v7e-m+fp/hard\libc.a(lib_a-memcpy.o)
 .ARM.attributes
                0x000006df       0x34 d:/11.2 2022.02/bin/../lib/gcc/arm-none-eabi/11.2.1/thumb/v7e-m+fp/hard\libc.a(lib_a-mlock.o)
 .ARM.attributes
                0x00000713       0x34 d:/11.2 2022.02/bin/../lib/gcc/arm-none-eabi/11.2.1/thumb/v7e-m+fp/hard\libc.a(lib_a-mprec.o)
 .ARM.attributes
                0x00000747       0x34 d:/11.2 2022.02/bin/../lib/gcc/arm-none-eabi/11.2.1/thumb/v7e-m+fp/hard\libc.a(lib_a-sbrkr.o)
 .ARM.attributes
                0x0000077b       0x34 d:/11.2 2022.02/bin/../lib/gcc/arm-none-eabi/11.2.1/thumb/v7e-m+fp/hard\libc.a(lib_a-s_frexp.o)
 .ARM.attributes
                0x000007af       0x34 d:/11.2 2022.02/bin/../lib/gcc/arm-none-eabi/11.2.1/thumb/v7e-m+fp/hard\libc.a(lib_a-strncpy.o)
 .ARM.attributes
                0x000007e3       0x34 d:/11.2 2022.02/bin/../lib/gcc/arm-none-eabi/11.2.1/thumb/v7e-m+fp/hard\libc.a(lib_a-svfiprintf.o)
 .ARM.attributes
                0x00000817       0x34 d:/11.2 2022.02/bin/../lib/gcc/arm-none-eabi/11.2.1/thumb/v7e-m+fp/hard\libc.a(lib_a-wcsnrtombs.o)
 .ARM.attributes
                0x0000084b       0x34 d:/11.2 2022.02/bin/../lib/gcc/arm-none-eabi/11.2.1/thumb/v7e-m+fp/hard\libc.a(lib_a-wctomb_r.o)
 .ARM.attributes
                0x0000087f       0x34 d:/11.2 2022.02/bin/../lib/gcc/arm-none-eabi/11.2.1/thumb/v7e-m+fp/hard\libc.a(lib_a-assert.o)
 .ARM.attributes
                0x000008b3       0x34 d:/11.2 2022.02/bin/../lib/gcc/arm-none-eabi/11.2.1/thumb/v7e-m+fp/hard\libc.a(lib_a-callocr.o)
 .ARM.attributes
                0x000008e7       0x34 d:/11.2 2022.02/bin/../lib/gcc/arm-none-eabi/11.2.1/thumb/v7e-m+fp/hard\libc.a(lib_a-ctype_.o)
 .ARM.attributes
                0x0000091b       0x34 d:/11.2 2022.02/bin/../lib/gcc/arm-none-eabi/11.2.1/thumb/v7e-m+fp/hard\libc.a(lib_a-errno.o)
 .ARM.attributes
                0x0000094f       0x34 d:/11.2 2022.02/bin/../lib/gcc/arm-none-eabi/11.2.1/thumb/v7e-m+fp/hard\libc.a(lib_a-fiprintf.o)
 .ARM.attributes
                0x00000983       0x34 d:/11.2 2022.02/bin/../lib/gcc/arm-none-eabi/11.2.1/thumb/v7e-m+fp/hard\libc.a(lib_a-memmove.o)
 .ARM.attributes
                0x000009b7       0x34 d:/11.2 2022.02/bin/../lib/gcc/arm-none-eabi/11.2.1/thumb/v7e-m+fp/hard\libc.a(lib_a-reallocr.o)
 .ARM.attributes
                0x000009eb       0x34 d:/11.2 2022.02/bin/../lib/gcc/arm-none-eabi/11.2.1/thumb/v7e-m+fp/hard\libc.a(lib_a-reent.o)
 .ARM.attributes
                0x00000a1f       0x34 d:/11.2 2022.02/bin/../lib/gcc/arm-none-eabi/11.2.1/thumb/v7e-m+fp/hard\libc.a(lib_a-vfiprintf.o)
 .ARM.attributes
                0x00000a53       0x34 d:/11.2 2022.02/bin/../lib/gcc/arm-none-eabi/11.2.1/thumb/v7e-m+fp/hard\libc.a(lib_a-wsetup.o)
 .ARM.attributes
                0x00000a87       0x34 d:/11.2 2022.02/bin/../lib/gcc/arm-none-eabi/11.2.1/thumb/v7e-m+fp/hard\libc.a(lib_a-abort.o)
 .ARM.attributes
                0x00000abb       0x34 d:/11.2 2022.02/bin/../lib/gcc/arm-none-eabi/11.2.1/thumb/v7e-m+fp/hard\libc.a(lib_a-fflush.o)
 .ARM.attributes
                0x00000aef       0x34 d:/11.2 2022.02/bin/../lib/gcc/arm-none-eabi/11.2.1/thumb/v7e-m+fp/hard\libc.a(lib_a-findfp.o)
 .ARM.attributes
                0x00000b23       0x34 d:/11.2 2022.02/bin/../lib/gcc/arm-none-eabi/11.2.1/thumb/v7e-m+fp/hard\libc.a(lib_a-fputwc.o)
 .ARM.attributes
                0x00000b57       0x34 d:/11.2 2022.02/bin/../lib/gcc/arm-none-eabi/11.2.1/thumb/v7e-m+fp/hard\libc.a(lib_a-fvwrite.o)
 .ARM.attributes
                0x00000b8b       0x34 d:/11.2 2022.02/bin/../lib/gcc/arm-none-eabi/11.2.1/thumb/v7e-m+fp/hard\libc.a(lib_a-fwalk.o)
 .ARM.attributes
                0x00000bbf       0x34 d:/11.2 2022.02/bin/../lib/gcc/arm-none-eabi/11.2.1/thumb/v7e-m+fp/hard\libc.a(lib_a-makebuf.o)
 .ARM.attributes
                0x00000bf3       0x34 d:/11.2 2022.02/bin/../lib/gcc/arm-none-eabi/11.2.1/thumb/v7e-m+fp/hard\libc.a(lib_a-signal.o)
 .ARM.attributes
                0x00000c27       0x34 d:/11.2 2022.02/bin/../lib/gcc/arm-none-eabi/11.2.1/thumb/v7e-m+fp/hard\libc.a(lib_a-signalr.o)
 .ARM.attributes
                0x00000c5b       0x34 d:/11.2 2022.02/bin/../lib/gcc/arm-none-eabi/11.2.1/thumb/v7e-m+fp/hard\libc.a(lib_a-stdio.o)
 .ARM.attributes
                0x00000c8f       0x34 d:/11.2 2022.02/bin/../lib/gcc/arm-none-eabi/11.2.1/thumb/v7e-m+fp/hard\libc.a(lib_a-wbuf.o)
 .ARM.attributes
                0x00000cc3       0x34 d:/11.2 2022.02/bin/../lib/gcc/arm-none-eabi/11.2.1/thumb/v7e-m+fp/hard\libc.a(lib_a-writer.o)
 .ARM.attributes
                0x00000cf7       0x34 d:/11.2 2022.02/bin/../lib/gcc/arm-none-eabi/11.2.1/thumb/v7e-m+fp/hard\libc.a(lib_a-closer.o)
 .ARM.attributes
                0x00000d2b       0x34 d:/11.2 2022.02/bin/../lib/gcc/arm-none-eabi/11.2.1/thumb/v7e-m+fp/hard\libc.a(lib_a-fclose.o)
 .ARM.attributes
                0x00000d5f       0x34 d:/11.2 2022.02/bin/../lib/gcc/arm-none-eabi/11.2.1/thumb/v7e-m+fp/hard\libc.a(lib_a-fstatr.o)
 .ARM.attributes
                0x00000d93       0x34 d:/11.2 2022.02/bin/../lib/gcc/arm-none-eabi/11.2.1/thumb/v7e-m+fp/hard\libc.a(lib_a-isattyr.o)
 .ARM.attributes
                0x00000dc7       0x34 d:/11.2 2022.02/bin/../lib/gcc/arm-none-eabi/11.2.1/thumb/v7e-m+fp/hard\libc.a(lib_a-lseekr.o)
 .ARM.attributes
                0x00000dfb       0x34 d:/11.2 2022.02/bin/../lib/gcc/arm-none-eabi/11.2.1/thumb/v7e-m+fp/hard\libc.a(lib_a-readr.o)
 .ARM.attributes
                0x00000e2f       0x34 d:/11.2 2022.02/bin/../lib/gcc/arm-none-eabi/11.2.1/thumb/v7e-m+fp/hard\libnosys.a(close.o)
 .ARM.attributes
                0x00000e63       0x34 d:/11.2 2022.02/bin/../lib/gcc/arm-none-eabi/11.2.1/thumb/v7e-m+fp/hard\libnosys.a(fstat.o)
 .ARM.attributes
                0x00000e97       0x34 d:/11.2 2022.02/bin/../lib/gcc/arm-none-eabi/11.2.1/thumb/v7e-m+fp/hard\libnosys.a(getpid.o)
 .ARM.attributes
                0x00000ecb       0x34 d:/11.2 2022.02/bin/../lib/gcc/arm-none-eabi/11.2.1/thumb/v7e-m+fp/hard\libnosys.a(isatty.o)
 .ARM.attributes
                0x00000eff       0x34 d:/11.2 2022.02/bin/../lib/gcc/arm-none-eabi/11.2.1/thumb/v7e-m+fp/hard\libnosys.a(kill.o)
 .ARM.attributes
                0x00000f33       0x34 d:/11.2 2022.02/bin/../lib/gcc/arm-none-eabi/11.2.1/thumb/v7e-m+fp/hard\libnosys.a(lseek.o)
 .ARM.attributes
                0x00000f67       0x34 d:/11.2 2022.02/bin/../lib/gcc/arm-none-eabi/11.2.1/thumb/v7e-m+fp/hard\libnosys.a(read.o)
 .ARM.attributes
                0x00000f9b       0x34 d:/11.2 2022.02/bin/../lib/gcc/arm-none-eabi/11.2.1/thumb/v7e-m+fp/hard\libnosys.a(sbrk.o)
 .ARM.attributes
                0x00000fcf       0x34 d:/11.2 2022.02/bin/../lib/gcc/arm-none-eabi/11.2.1/thumb/v7e-m+fp/hard\libnosys.a(write.o)
 .ARM.attributes
                0x00001003       0x34 d:/11.2 2022.02/bin/../lib/gcc/arm-none-eabi/11.2.1/thumb/v7e-m+fp/hard\libnosys.a(_exit.o)
 .ARM.attributes
                0x00001037       0x1e d:/11.2 2022.02/bin/../lib/gcc/arm-none-eabi/11.2.1/thumb/v7e-m+fp/hard\libgcc.a(_arm_addsubdf3.o)
 .ARM.attributes
                0x00001055       0x1e d:/11.2 2022.02/bin/../lib/gcc/arm-none-eabi/11.2.1/thumb/v7e-m+fp/hard\libgcc.a(_arm_muldivdf3.o)
 .ARM.attributes
                0x00001073       0x1e d:/11.2 2022.02/bin/../lib/gcc/arm-none-eabi/11.2.1/thumb/v7e-m+fp/hard\libgcc.a(_arm_cmpdf2.o)
 .ARM.attributes
                0x00001091       0x1e d:/11.2 2022.02/bin/../lib/gcc/arm-none-eabi/11.2.1/thumb/v7e-m+fp/hard\libgcc.a(_arm_unorddf2.o)
 .ARM.attributes
                0x000010af       0x1e d:/11.2 2022.02/bin/../lib/gcc/arm-none-eabi/11.2.1/thumb/v7e-m+fp/hard\libgcc.a(_arm_fixdfsi.o)
 .ARM.attributes
                0x000010cd       0x1e d:/11.2 2022.02/bin/../lib/gcc/arm-none-eabi/11.2.1/thumb/v7e-m+fp/hard\libgcc.a(_aeabi_uldivmod.o)
 .ARM.attributes
                0x000010eb       0x34 d:/11.2 2022.02/bin/../lib/gcc/arm-none-eabi/11.2.1/thumb/v7e-m+fp/hard\libgcc.a(_udivmoddi4.o)
 .ARM.attributes
                0x0000111f       0x1e d:/11.2 2022.02/bin/../lib/gcc/arm-none-eabi/11.2.1/thumb/v7e-m+fp/hard\libgcc.a(_dvmd_tls.o)
 .ARM.attributes
                0x0000113d       0x34 d:/11.2 2022.02/bin/../lib/gcc/arm-none-eabi/11.2.1/thumb/v7e-m+fp/hard/crtend.o
 .ARM.attributes
                0x00001171       0x1e d:/11.2 2022.02/bin/../lib/gcc/arm-none-eabi/11.2.1/thumb/v7e-m+fp/hard/crtn.o
OUTPUT(build/carF4.elf elf32-littlearm)
LOAD linker stubs
LOAD d:/11.2 2022.02/bin/../lib/gcc/arm-none-eabi/11.2.1/thumb/v7e-m+fp/hard\libc.a
LOAD d:/11.2 2022.02/bin/../lib/gcc/arm-none-eabi/11.2.1/thumb/v7e-m+fp/hard\libm.a
LOAD d:/11.2 2022.02/bin/../lib/gcc/arm-none-eabi/11.2.1/thumb/v7e-m+fp/hard\libgcc.a

.comment        0x00000000       0x57
 .comment       0x00000000       0x57 d:/11.2 2022.02/bin/../lib/gcc/arm-none-eabi/11.2.1/thumb/v7e-m+fp/hard/crtbegin.o
                                 0x58 (size before relaxing)
 .comment       0x00000057       0x58 build/main.o
 .comment       0x00000057       0x58 build/gpio.o
 .comment       0x00000057       0x58 build/stm32f4xx_it.o
 .comment       0x00000057       0x58 build/stm32f4xx_hal_msp.o
 .comment       0x00000057       0x58 build/stm32f4xx_hal_tim.o
 .comment       0x00000057       0x58 build/stm32f4xx_hal_tim_ex.o
 .comment       0x00000057       0x58 build/stm32f4xx_hal_rcc.o
 .comment       0x00000057       0x58 build/stm32f4xx_hal_gpio.o
 .comment       0x00000057       0x58 build/stm32f4xx_hal_dma.o
 .comment       0x00000057       0x58 build/stm32f4xx_hal_cortex.o
 .comment       0x00000057       0x58 build/stm32f4xx_hal.o
 .comment       0x00000057       0x58 build/system_stm32f4xx.o
 .comment       0x00000057       0x58 build/dma.o
 .comment       0x00000057       0x58 build/tim.o
 .comment       0x00000057       0x58 build/usart.o
 .comment       0x00000057       0x58 build/stm32f4xx_hal_uart.o
 .comment       0x00000057       0x58 build/pid.o
 .comment       0x00000057       0x58 d:/11.2 2022.02/bin/../lib/gcc/arm-none-eabi/11.2.1/thumb/v7e-m+fp/hard\libc.a(lib_a-impure.o)
 .comment       0x00000057       0x58 d:/11.2 2022.02/bin/../lib/gcc/arm-none-eabi/11.2.1/thumb/v7e-m+fp/hard\libc.a(lib_a-init.o)
 .comment       0x00000057       0x58 d:/11.2 2022.02/bin/../lib/gcc/arm-none-eabi/11.2.1/thumb/v7e-m+fp/hard\libc.a(lib_a-memset.o)
 .comment       0x00000057       0x58 d:/11.2 2022.02/bin/../lib/gcc/arm-none-eabi/11.2.1/thumb/v7e-m+fp/hard\libc.a(lib_a-vsprintf.o)
 .comment       0x00000057       0x58 d:/11.2 2022.02/bin/../lib/gcc/arm-none-eabi/11.2.1/thumb/v7e-m+fp/hard\libc.a(lib_a-svfprintf.o)
 .comment       0x00000057       0x58 d:/11.2 2022.02/bin/../lib/gcc/arm-none-eabi/11.2.1/thumb/v7e-m+fp/hard\libc.a(lib_a-wcrtomb.o)
 .comment       0x00000057       0x58 d:/11.2 2022.02/bin/../lib/gcc/arm-none-eabi/11.2.1/thumb/v7e-m+fp/hard\libc.a(lib_a-wcsrtombs.o)
 .comment       0x00000057       0x58 d:/11.2 2022.02/bin/../lib/gcc/arm-none-eabi/11.2.1/thumb/v7e-m+fp/hard\libc.a(lib_a-dtoa.o)
 .comment       0x00000057       0x58 d:/11.2 2022.02/bin/../lib/gcc/arm-none-eabi/11.2.1/thumb/v7e-m+fp/hard\libc.a(lib_a-freer.o)
 .comment       0x00000057       0x58 d:/11.2 2022.02/bin/../lib/gcc/arm-none-eabi/11.2.1/thumb/v7e-m+fp/hard\libc.a(lib_a-localeconv.o)
 .comment       0x00000057       0x58 d:/11.2 2022.02/bin/../lib/gcc/arm-none-eabi/11.2.1/thumb/v7e-m+fp/hard\libc.a(lib_a-locale.o)
 .comment       0x00000057       0x58 d:/11.2 2022.02/bin/../lib/gcc/arm-none-eabi/11.2.1/thumb/v7e-m+fp/hard\libc.a(lib_a-mallocr.o)
 .comment       0x00000057       0x58 d:/11.2 2022.02/bin/../lib/gcc/arm-none-eabi/11.2.1/thumb/v7e-m+fp/hard\libc.a(lib_a-mbtowc_r.o)
 .comment       0x00000057       0x58 d:/11.2 2022.02/bin/../lib/gcc/arm-none-eabi/11.2.1/thumb/v7e-m+fp/hard\libc.a(lib_a-mlock.o)
 .comment       0x00000057       0x58 d:/11.2 2022.02/bin/../lib/gcc/arm-none-eabi/11.2.1/thumb/v7e-m+fp/hard\libc.a(lib_a-mprec.o)
 .comment       0x00000057       0x58 d:/11.2 2022.02/bin/../lib/gcc/arm-none-eabi/11.2.1/thumb/v7e-m+fp/hard\libc.a(lib_a-sbrkr.o)
 .comment       0x00000057       0x58 d:/11.2 2022.02/bin/../lib/gcc/arm-none-eabi/11.2.1/thumb/v7e-m+fp/hard\libc.a(lib_a-s_frexp.o)
 .comment       0x00000057       0x58 d:/11.2 2022.02/bin/../lib/gcc/arm-none-eabi/11.2.1/thumb/v7e-m+fp/hard\libc.a(lib_a-strncpy.o)
 .comment       0x00000057       0x58 d:/11.2 2022.02/bin/../lib/gcc/arm-none-eabi/11.2.1/thumb/v7e-m+fp/hard\libc.a(lib_a-svfiprintf.o)
 .comment       0x00000057       0x58 d:/11.2 2022.02/bin/../lib/gcc/arm-none-eabi/11.2.1/thumb/v7e-m+fp/hard\libc.a(lib_a-wcsnrtombs.o)
 .comment       0x00000057       0x58 d:/11.2 2022.02/bin/../lib/gcc/arm-none-eabi/11.2.1/thumb/v7e-m+fp/hard\libc.a(lib_a-wctomb_r.o)
 .comment       0x00000057       0x58 d:/11.2 2022.02/bin/../lib/gcc/arm-none-eabi/11.2.1/thumb/v7e-m+fp/hard\libc.a(lib_a-assert.o)
 .comment       0x00000057       0x58 d:/11.2 2022.02/bin/../lib/gcc/arm-none-eabi/11.2.1/thumb/v7e-m+fp/hard\libc.a(lib_a-callocr.o)
 .comment       0x00000057       0x58 d:/11.2 2022.02/bin/../lib/gcc/arm-none-eabi/11.2.1/thumb/v7e-m+fp/hard\libc.a(lib_a-ctype_.o)
 .comment       0x00000057       0x58 d:/11.2 2022.02/bin/../lib/gcc/arm-none-eabi/11.2.1/thumb/v7e-m+fp/hard\libc.a(lib_a-errno.o)
 .comment       0x00000057       0x58 d:/11.2 2022.02/bin/../lib/gcc/arm-none-eabi/11.2.1/thumb/v7e-m+fp/hard\libc.a(lib_a-fiprintf.o)
 .comment       0x00000057       0x58 d:/11.2 2022.02/bin/../lib/gcc/arm-none-eabi/11.2.1/thumb/v7e-m+fp/hard\libc.a(lib_a-memmove.o)
 .comment       0x00000057       0x58 d:/11.2 2022.02/bin/../lib/gcc/arm-none-eabi/11.2.1/thumb/v7e-m+fp/hard\libc.a(lib_a-reallocr.o)
 .comment       0x00000057       0x58 d:/11.2 2022.02/bin/../lib/gcc/arm-none-eabi/11.2.1/thumb/v7e-m+fp/hard\libc.a(lib_a-reent.o)
 .comment       0x00000057       0x58 d:/11.2 2022.02/bin/../lib/gcc/arm-none-eabi/11.2.1/thumb/v7e-m+fp/hard\libc.a(lib_a-vfiprintf.o)
 .comment       0x00000057       0x58 d:/11.2 2022.02/bin/../lib/gcc/arm-none-eabi/11.2.1/thumb/v7e-m+fp/hard\libc.a(lib_a-wsetup.o)
 .comment       0x00000057       0x58 d:/11.2 2022.02/bin/../lib/gcc/arm-none-eabi/11.2.1/thumb/v7e-m+fp/hard\libc.a(lib_a-abort.o)
 .comment       0x00000057       0x58 d:/11.2 2022.02/bin/../lib/gcc/arm-none-eabi/11.2.1/thumb/v7e-m+fp/hard\libc.a(lib_a-fflush.o)
 .comment       0x00000057       0x58 d:/11.2 2022.02/bin/../lib/gcc/arm-none-eabi/11.2.1/thumb/v7e-m+fp/hard\libc.a(lib_a-findfp.o)
 .comment       0x00000057       0x58 d:/11.2 2022.02/bin/../lib/gcc/arm-none-eabi/11.2.1/thumb/v7e-m+fp/hard\libc.a(lib_a-fputwc.o)
 .comment       0x00000057       0x58 d:/11.2 2022.02/bin/../lib/gcc/arm-none-eabi/11.2.1/thumb/v7e-m+fp/hard\libc.a(lib_a-fvwrite.o)
 .comment       0x00000057       0x58 d:/11.2 2022.02/bin/../lib/gcc/arm-none-eabi/11.2.1/thumb/v7e-m+fp/hard\libc.a(lib_a-fwalk.o)
 .comment       0x00000057       0x58 d:/11.2 2022.02/bin/../lib/gcc/arm-none-eabi/11.2.1/thumb/v7e-m+fp/hard\libc.a(lib_a-makebuf.o)
 .comment       0x00000057       0x58 d:/11.2 2022.02/bin/../lib/gcc/arm-none-eabi/11.2.1/thumb/v7e-m+fp/hard\libc.a(lib_a-signal.o)
 .comment       0x00000057       0x58 d:/11.2 2022.02/bin/../lib/gcc/arm-none-eabi/11.2.1/thumb/v7e-m+fp/hard\libc.a(lib_a-signalr.o)
 .comment       0x00000057       0x58 d:/11.2 2022.02/bin/../lib/gcc/arm-none-eabi/11.2.1/thumb/v7e-m+fp/hard\libc.a(lib_a-stdio.o)
 .comment       0x00000057       0x58 d:/11.2 2022.02/bin/../lib/gcc/arm-none-eabi/11.2.1/thumb/v7e-m+fp/hard\libc.a(lib_a-wbuf.o)
 .comment       0x00000057       0x58 d:/11.2 2022.02/bin/../lib/gcc/arm-none-eabi/11.2.1/thumb/v7e-m+fp/hard\libc.a(lib_a-writer.o)
 .comment       0x00000057       0x58 d:/11.2 2022.02/bin/../lib/gcc/arm-none-eabi/11.2.1/thumb/v7e-m+fp/hard\libc.a(lib_a-closer.o)
 .comment       0x00000057       0x58 d:/11.2 2022.02/bin/../lib/gcc/arm-none-eabi/11.2.1/thumb/v7e-m+fp/hard\libc.a(lib_a-fclose.o)
 .comment       0x00000057       0x58 d:/11.2 2022.02/bin/../lib/gcc/arm-none-eabi/11.2.1/thumb/v7e-m+fp/hard\libc.a(lib_a-fstatr.o)
 .comment       0x00000057       0x58 d:/11.2 2022.02/bin/../lib/gcc/arm-none-eabi/11.2.1/thumb/v7e-m+fp/hard\libc.a(lib_a-isattyr.o)
 .comment       0x00000057       0x58 d:/11.2 2022.02/bin/../lib/gcc/arm-none-eabi/11.2.1/thumb/v7e-m+fp/hard\libc.a(lib_a-lseekr.o)
 .comment       0x00000057       0x58 d:/11.2 2022.02/bin/../lib/gcc/arm-none-eabi/11.2.1/thumb/v7e-m+fp/hard\libc.a(lib_a-readr.o)
 .comment       0x00000057       0x58 d:/11.2 2022.02/bin/../lib/gcc/arm-none-eabi/11.2.1/thumb/v7e-m+fp/hard\libnosys.a(close.o)
 .comment       0x00000057       0x58 d:/11.2 2022.02/bin/../lib/gcc/arm-none-eabi/11.2.1/thumb/v7e-m+fp/hard\libnosys.a(fstat.o)
 .comment       0x00000057       0x58 d:/11.2 2022.02/bin/../lib/gcc/arm-none-eabi/11.2.1/thumb/v7e-m+fp/hard\libnosys.a(getpid.o)
 .comment       0x00000057       0x58 d:/11.2 2022.02/bin/../lib/gcc/arm-none-eabi/11.2.1/thumb/v7e-m+fp/hard\libnosys.a(isatty.o)
 .comment       0x00000057       0x58 d:/11.2 2022.02/bin/../lib/gcc/arm-none-eabi/11.2.1/thumb/v7e-m+fp/hard\libnosys.a(kill.o)
 .comment       0x00000057       0x58 d:/11.2 2022.02/bin/../lib/gcc/arm-none-eabi/11.2.1/thumb/v7e-m+fp/hard\libnosys.a(lseek.o)
 .comment       0x00000057       0x58 d:/11.2 2022.02/bin/../lib/gcc/arm-none-eabi/11.2.1/thumb/v7e-m+fp/hard\libnosys.a(read.o)
 .comment       0x00000057       0x58 d:/11.2 2022.02/bin/../lib/gcc/arm-none-eabi/11.2.1/thumb/v7e-m+fp/hard\libnosys.a(sbrk.o)
 .comment       0x00000057       0x58 d:/11.2 2022.02/bin/../lib/gcc/arm-none-eabi/11.2.1/thumb/v7e-m+fp/hard\libnosys.a(write.o)
 .comment       0x00000057       0x58 d:/11.2 2022.02/bin/../lib/gcc/arm-none-eabi/11.2.1/thumb/v7e-m+fp/hard\libnosys.a(_exit.o)
 .comment       0x00000057       0x58 d:/11.2 2022.02/bin/../lib/gcc/arm-none-eabi/11.2.1/thumb/v7e-m+fp/hard\libgcc.a(_udivmoddi4.o)
 .comment       0x00000057       0x58 d:/11.2 2022.02/bin/../lib/gcc/arm-none-eabi/11.2.1/thumb/v7e-m+fp/hard/crtend.o

.debug_info     0x00000000    0x3a5c1
 .debug_info    0x00000000     0x1319 build/main.o
 .debug_info    0x00001319      0x584 build/gpio.o
 .debug_info    0x0000189d      0x4ae build/stm32f4xx_it.o
 .debug_info    0x00001d4b      0x2eb build/stm32f4xx_hal_msp.o
 .debug_info    0x00002036     0x40c2 build/stm32f4xx_hal_tim.o
 .debug_info    0x000060f8     0x1d52 build/stm32f4xx_hal_tim_ex.o
 .debug_info    0x00007e4a      0xc0a build/stm32f4xx_hal_rcc.o
 .debug_info    0x00008a54      0x848 build/stm32f4xx_hal_gpio.o
 .debug_info    0x0000929c      0xbce build/stm32f4xx_hal_dma.o
 .debug_info    0x00009e6a     0x117a build/stm32f4xx_hal_cortex.o
 .debug_info    0x0000afe4      0xafa build/stm32f4xx_hal.o
 .debug_info    0x0000bade      0x5b3 build/system_stm32f4xx.o
 .debug_info    0x0000c091      0x599 build/dma.o
 .debug_info    0x0000c62a     0x1471 build/tim.o
 .debug_info    0x0000da9b      0xf15 build/usart.o
 .debug_info    0x0000e9b0     0x4425 build/stm32f4xx_hal_uart.o
 .debug_info    0x00012dd5     0x1361 build/pid.o
 .debug_info    0x00014136       0x22 build/startup_stm32f407xx.o
 .debug_info    0x00014158      0x8be d:/11.2 2022.02/bin/../lib/gcc/arm-none-eabi/11.2.1/thumb/v7e-m+fp/hard\libc.a(lib_a-impure.o)
 .debug_info    0x00014a16      0x10b d:/11.2 2022.02/bin/../lib/gcc/arm-none-eabi/11.2.1/thumb/v7e-m+fp/hard\libc.a(lib_a-init.o)
 .debug_info    0x00014b21      0x135 d:/11.2 2022.02/bin/../lib/gcc/arm-none-eabi/11.2.1/thumb/v7e-m+fp/hard\libc.a(lib_a-memset.o)
 .debug_info    0x00014c56       0x25 d:/11.2 2022.02/bin/../lib/gcc/arm-none-eabi/11.2.1/thumb/v7e-m+fp/hard\libc.a(lib_a-strlen.o)
 .debug_info    0x00014c7b      0xa8b d:/11.2 2022.02/bin/../lib/gcc/arm-none-eabi/11.2.1/thumb/v7e-m+fp/hard\libc.a(lib_a-vsprintf.o)
 .debug_info    0x00015706     0x1e1e d:/11.2 2022.02/bin/../lib/gcc/arm-none-eabi/11.2.1/thumb/v7e-m+fp/hard\libc.a(lib_a-svfprintf.o)
 .debug_info    0x00017524      0xcd5 d:/11.2 2022.02/bin/../lib/gcc/arm-none-eabi/11.2.1/thumb/v7e-m+fp/hard\libc.a(lib_a-wcrtomb.o)
 .debug_info    0x000181f9      0xa3c d:/11.2 2022.02/bin/../lib/gcc/arm-none-eabi/11.2.1/thumb/v7e-m+fp/hard\libc.a(lib_a-wcsrtombs.o)
 .debug_info    0x00018c35     0x1a95 d:/11.2 2022.02/bin/../lib/gcc/arm-none-eabi/11.2.1/thumb/v7e-m+fp/hard\libc.a(lib_a-dtoa.o)
 .debug_info    0x0001a6ca      0xcd5 d:/11.2 2022.02/bin/../lib/gcc/arm-none-eabi/11.2.1/thumb/v7e-m+fp/hard\libc.a(lib_a-freer.o)
 .debug_info    0x0001b39f      0xbeb d:/11.2 2022.02/bin/../lib/gcc/arm-none-eabi/11.2.1/thumb/v7e-m+fp/hard\libc.a(lib_a-localeconv.o)
 .debug_info    0x0001bf8a     0x1b51 d:/11.2 2022.02/bin/../lib/gcc/arm-none-eabi/11.2.1/thumb/v7e-m+fp/hard\libc.a(lib_a-locale.o)
 .debug_info    0x0001dadb      0xe59 d:/11.2 2022.02/bin/../lib/gcc/arm-none-eabi/11.2.1/thumb/v7e-m+fp/hard\libc.a(lib_a-mallocr.o)
 .debug_info    0x0001e934     0x10f0 d:/11.2 2022.02/bin/../lib/gcc/arm-none-eabi/11.2.1/thumb/v7e-m+fp/hard\libc.a(lib_a-mbtowc_r.o)
 .debug_info    0x0001fa24       0x25 d:/11.2 2022.02/bin/../lib/gcc/arm-none-eabi/11.2.1/thumb/v7e-m+fp/hard\libc.a(lib_a-memchr.o)
 .debug_info    0x0001fa49       0x25 d:/11.2 2022.02/bin/../lib/gcc/arm-none-eabi/11.2.1/thumb/v7e-m+fp/hard\libc.a(lib_a-memcpy.o)
 .debug_info    0x0001fa6e      0x8d4 d:/11.2 2022.02/bin/../lib/gcc/arm-none-eabi/11.2.1/thumb/v7e-m+fp/hard\libc.a(lib_a-mlock.o)
 .debug_info    0x00020342     0x1fe3 d:/11.2 2022.02/bin/../lib/gcc/arm-none-eabi/11.2.1/thumb/v7e-m+fp/hard\libc.a(lib_a-mprec.o)
 .debug_info    0x00022325      0x92a d:/11.2 2022.02/bin/../lib/gcc/arm-none-eabi/11.2.1/thumb/v7e-m+fp/hard\libc.a(lib_a-sbrkr.o)
 .debug_info    0x00022c4f      0x1e0 d:/11.2 2022.02/bin/../lib/gcc/arm-none-eabi/11.2.1/thumb/v7e-m+fp/hard\libc.a(lib_a-s_frexp.o)
 .debug_info    0x00022e2f      0x14a d:/11.2 2022.02/bin/../lib/gcc/arm-none-eabi/11.2.1/thumb/v7e-m+fp/hard\libc.a(lib_a-strncpy.o)
 .debug_info    0x00022f79     0x16f2 d:/11.2 2022.02/bin/../lib/gcc/arm-none-eabi/11.2.1/thumb/v7e-m+fp/hard\libc.a(lib_a-svfiprintf.o)
 .debug_info    0x0002466b      0xe6f d:/11.2 2022.02/bin/../lib/gcc/arm-none-eabi/11.2.1/thumb/v7e-m+fp/hard\libc.a(lib_a-wcsnrtombs.o)
 .debug_info    0x000254da      0xe97 d:/11.2 2022.02/bin/../lib/gcc/arm-none-eabi/11.2.1/thumb/v7e-m+fp/hard\libc.a(lib_a-wctomb_r.o)
 .debug_info    0x00026371      0x9cb d:/11.2 2022.02/bin/../lib/gcc/arm-none-eabi/11.2.1/thumb/v7e-m+fp/hard\libc.a(lib_a-assert.o)
 .debug_info    0x00026d3c      0xa6c d:/11.2 2022.02/bin/../lib/gcc/arm-none-eabi/11.2.1/thumb/v7e-m+fp/hard\libc.a(lib_a-callocr.o)
 .debug_info    0x000277a8      0xb85 d:/11.2 2022.02/bin/../lib/gcc/arm-none-eabi/11.2.1/thumb/v7e-m+fp/hard\libc.a(lib_a-ctype_.o)
 .debug_info    0x0002832d      0x8a9 d:/11.2 2022.02/bin/../lib/gcc/arm-none-eabi/11.2.1/thumb/v7e-m+fp/hard\libc.a(lib_a-errno.o)
 .debug_info    0x00028bd6      0x9fa d:/11.2 2022.02/bin/../lib/gcc/arm-none-eabi/11.2.1/thumb/v7e-m+fp/hard\libc.a(lib_a-fiprintf.o)
 .debug_info    0x000295d0      0x148 d:/11.2 2022.02/bin/../lib/gcc/arm-none-eabi/11.2.1/thumb/v7e-m+fp/hard\libc.a(lib_a-memmove.o)
 .debug_info    0x00029718      0xd89 d:/11.2 2022.02/bin/../lib/gcc/arm-none-eabi/11.2.1/thumb/v7e-m+fp/hard\libc.a(lib_a-reallocr.o)
 .debug_info    0x0002a4a1      0xb68 d:/11.2 2022.02/bin/../lib/gcc/arm-none-eabi/11.2.1/thumb/v7e-m+fp/hard\libc.a(lib_a-reent.o)
 .debug_info    0x0002b009     0x1cbf d:/11.2 2022.02/bin/../lib/gcc/arm-none-eabi/11.2.1/thumb/v7e-m+fp/hard\libc.a(lib_a-vfiprintf.o)
 .debug_info    0x0002ccc8      0x969 d:/11.2 2022.02/bin/../lib/gcc/arm-none-eabi/11.2.1/thumb/v7e-m+fp/hard\libc.a(lib_a-wsetup.o)
 .debug_info    0x0002d631       0xd8 d:/11.2 2022.02/bin/../lib/gcc/arm-none-eabi/11.2.1/thumb/v7e-m+fp/hard\libc.a(lib_a-abort.o)
 .debug_info    0x0002d709      0xba0 d:/11.2 2022.02/bin/../lib/gcc/arm-none-eabi/11.2.1/thumb/v7e-m+fp/hard\libc.a(lib_a-fflush.o)
 .debug_info    0x0002e2a9      0xfc3 d:/11.2 2022.02/bin/../lib/gcc/arm-none-eabi/11.2.1/thumb/v7e-m+fp/hard\libc.a(lib_a-findfp.o)
 .debug_info    0x0002f26c      0xbd5 d:/11.2 2022.02/bin/../lib/gcc/arm-none-eabi/11.2.1/thumb/v7e-m+fp/hard\libc.a(lib_a-fputwc.o)
 .debug_info    0x0002fe41      0xcdc d:/11.2 2022.02/bin/../lib/gcc/arm-none-eabi/11.2.1/thumb/v7e-m+fp/hard\libc.a(lib_a-fvwrite.o)
 .debug_info    0x00030b1d      0x9e7 d:/11.2 2022.02/bin/../lib/gcc/arm-none-eabi/11.2.1/thumb/v7e-m+fp/hard\libc.a(lib_a-fwalk.o)
 .debug_info    0x00031504      0xdb8 d:/11.2 2022.02/bin/../lib/gcc/arm-none-eabi/11.2.1/thumb/v7e-m+fp/hard\libc.a(lib_a-makebuf.o)
 .debug_info    0x000322bc      0xed1 d:/11.2 2022.02/bin/../lib/gcc/arm-none-eabi/11.2.1/thumb/v7e-m+fp/hard\libc.a(lib_a-signal.o)
 .debug_info    0x0003318d      0x98c d:/11.2 2022.02/bin/../lib/gcc/arm-none-eabi/11.2.1/thumb/v7e-m+fp/hard\libc.a(lib_a-signalr.o)
 .debug_info    0x00033b19      0xbfc d:/11.2 2022.02/bin/../lib/gcc/arm-none-eabi/11.2.1/thumb/v7e-m+fp/hard\libc.a(lib_a-stdio.o)
 .debug_info    0x00034715      0xa0f d:/11.2 2022.02/bin/../lib/gcc/arm-none-eabi/11.2.1/thumb/v7e-m+fp/hard\libc.a(lib_a-wbuf.o)
 .debug_info    0x00035124      0x961 d:/11.2 2022.02/bin/../lib/gcc/arm-none-eabi/11.2.1/thumb/v7e-m+fp/hard\libc.a(lib_a-writer.o)
 .debug_info    0x00035a85      0x905 d:/11.2 2022.02/bin/../lib/gcc/arm-none-eabi/11.2.1/thumb/v7e-m+fp/hard\libc.a(lib_a-closer.o)
 .debug_info    0x0003638a      0xa7a d:/11.2 2022.02/bin/../lib/gcc/arm-none-eabi/11.2.1/thumb/v7e-m+fp/hard\libc.a(lib_a-fclose.o)
 .debug_info    0x00036e04      0xb23 d:/11.2 2022.02/bin/../lib/gcc/arm-none-eabi/11.2.1/thumb/v7e-m+fp/hard\libc.a(lib_a-fstatr.o)
 .debug_info    0x00037927      0x905 d:/11.2 2022.02/bin/../lib/gcc/arm-none-eabi/11.2.1/thumb/v7e-m+fp/hard\libc.a(lib_a-isattyr.o)
 .debug_info    0x0003822c      0x944 d:/11.2 2022.02/bin/../lib/gcc/arm-none-eabi/11.2.1/thumb/v7e-m+fp/hard\libc.a(lib_a-lseekr.o)
 .debug_info    0x00038b70      0x95b d:/11.2 2022.02/bin/../lib/gcc/arm-none-eabi/11.2.1/thumb/v7e-m+fp/hard\libc.a(lib_a-readr.o)
 .debug_info    0x000394cb       0xb2 d:/11.2 2022.02/bin/../lib/gcc/arm-none-eabi/11.2.1/thumb/v7e-m+fp/hard\libnosys.a(close.o)
 .debug_info    0x0003957d      0x2cb d:/11.2 2022.02/bin/../lib/gcc/arm-none-eabi/11.2.1/thumb/v7e-m+fp/hard\libnosys.a(fstat.o)
 .debug_info    0x00039848       0x9d d:/11.2 2022.02/bin/../lib/gcc/arm-none-eabi/11.2.1/thumb/v7e-m+fp/hard\libnosys.a(getpid.o)
 .debug_info    0x000398e5       0xb2 d:/11.2 2022.02/bin/../lib/gcc/arm-none-eabi/11.2.1/thumb/v7e-m+fp/hard\libnosys.a(isatty.o)
 .debug_info    0x00039997       0xc0 d:/11.2 2022.02/bin/../lib/gcc/arm-none-eabi/11.2.1/thumb/v7e-m+fp/hard\libnosys.a(kill.o)
 .debug_info    0x00039a57       0xd4 d:/11.2 2022.02/bin/../lib/gcc/arm-none-eabi/11.2.1/thumb/v7e-m+fp/hard\libnosys.a(lseek.o)
 .debug_info    0x00039b2b       0xda d:/11.2 2022.02/bin/../lib/gcc/arm-none-eabi/11.2.1/thumb/v7e-m+fp/hard\libnosys.a(read.o)
 .debug_info    0x00039c05       0x9e d:/11.2 2022.02/bin/../lib/gcc/arm-none-eabi/11.2.1/thumb/v7e-m+fp/hard\libnosys.a(sbrk.o)
 .debug_info    0x00039ca3       0xda d:/11.2 2022.02/bin/../lib/gcc/arm-none-eabi/11.2.1/thumb/v7e-m+fp/hard\libnosys.a(write.o)
 .debug_info    0x00039d7d       0x62 d:/11.2 2022.02/bin/../lib/gcc/arm-none-eabi/11.2.1/thumb/v7e-m+fp/hard\libnosys.a(_exit.o)
 .debug_info    0x00039ddf       0x25 d:/11.2 2022.02/bin/../lib/gcc/arm-none-eabi/11.2.1/thumb/v7e-m+fp/hard\libgcc.a(_arm_addsubdf3.o)
 .debug_info    0x00039e04       0x25 d:/11.2 2022.02/bin/../lib/gcc/arm-none-eabi/11.2.1/thumb/v7e-m+fp/hard\libgcc.a(_arm_muldivdf3.o)
 .debug_info    0x00039e29       0x25 d:/11.2 2022.02/bin/../lib/gcc/arm-none-eabi/11.2.1/thumb/v7e-m+fp/hard\libgcc.a(_arm_cmpdf2.o)
 .debug_info    0x00039e4e       0x24 d:/11.2 2022.02/bin/../lib/gcc/arm-none-eabi/11.2.1/thumb/v7e-m+fp/hard\libgcc.a(_arm_unorddf2.o)
 .debug_info    0x00039e72       0x24 d:/11.2 2022.02/bin/../lib/gcc/arm-none-eabi/11.2.1/thumb/v7e-m+fp/hard\libgcc.a(_arm_fixdfsi.o)
 .debug_info    0x00039e96       0x24 d:/11.2 2022.02/bin/../lib/gcc/arm-none-eabi/11.2.1/thumb/v7e-m+fp/hard\libgcc.a(_aeabi_uldivmod.o)
 .debug_info    0x00039eba      0x6e3 d:/11.2 2022.02/bin/../lib/gcc/arm-none-eabi/11.2.1/thumb/v7e-m+fp/hard\libgcc.a(_udivmoddi4.o)
 .debug_info    0x0003a59d       0x24 d:/11.2 2022.02/bin/../lib/gcc/arm-none-eabi/11.2.1/thumb/v7e-m+fp/hard\libgcc.a(_dvmd_tls.o)

.debug_abbrev   0x00000000     0xab98
 .debug_abbrev  0x00000000      0x2b5 build/main.o
 .debug_abbrev  0x000002b5      0x160 build/gpio.o
 .debug_abbrev  0x00000415      0x16b build/stm32f4xx_it.o
 .debug_abbrev  0x00000580       0xd3 build/stm32f4xx_hal_msp.o
 .debug_abbrev  0x00000653      0x2b6 build/stm32f4xx_hal_tim.o
 .debug_abbrev  0x00000909      0x2b0 build/stm32f4xx_hal_tim_ex.o
 .debug_abbrev  0x00000bb9      0x2de build/stm32f4xx_hal_rcc.o
 .debug_abbrev  0x00000e97      0x22b build/stm32f4xx_hal_gpio.o
 .debug_abbrev  0x000010c2      0x2fe build/stm32f4xx_hal_dma.o
 .debug_abbrev  0x000013c0      0x371 build/stm32f4xx_hal_cortex.o
 .debug_abbrev  0x00001731      0x244 build/stm32f4xx_hal.o
 .debug_abbrev  0x00001975      0x11b build/system_stm32f4xx.o
 .debug_abbrev  0x00001a90      0x12f build/dma.o
 .debug_abbrev  0x00001bbf      0x276 build/tim.o
 .debug_abbrev  0x00001e35      0x2ac build/usart.o
 .debug_abbrev  0x000020e1      0x36f build/stm32f4xx_hal_uart.o
 .debug_abbrev  0x00002450      0x274 build/pid.o
 .debug_abbrev  0x000026c4       0x12 build/startup_stm32f407xx.o
 .debug_abbrev  0x000026d6      0x1ca d:/11.2 2022.02/bin/../lib/gcc/arm-none-eabi/11.2.1/thumb/v7e-m+fp/hard\libc.a(lib_a-impure.o)
 .debug_abbrev  0x000028a0       0xc9 d:/11.2 2022.02/bin/../lib/gcc/arm-none-eabi/11.2.1/thumb/v7e-m+fp/hard\libc.a(lib_a-init.o)
 .debug_abbrev  0x00002969       0xb7 d:/11.2 2022.02/bin/../lib/gcc/arm-none-eabi/11.2.1/thumb/v7e-m+fp/hard\libc.a(lib_a-memset.o)
 .debug_abbrev  0x00002a20       0x14 d:/11.2 2022.02/bin/../lib/gcc/arm-none-eabi/11.2.1/thumb/v7e-m+fp/hard\libc.a(lib_a-strlen.o)
 .debug_abbrev  0x00002a34      0x2ba d:/11.2 2022.02/bin/../lib/gcc/arm-none-eabi/11.2.1/thumb/v7e-m+fp/hard\libc.a(lib_a-vsprintf.o)
 .debug_abbrev  0x00002cee      0x45d d:/11.2 2022.02/bin/../lib/gcc/arm-none-eabi/11.2.1/thumb/v7e-m+fp/hard\libc.a(lib_a-svfprintf.o)
 .debug_abbrev  0x0000314b      0x25f d:/11.2 2022.02/bin/../lib/gcc/arm-none-eabi/11.2.1/thumb/v7e-m+fp/hard\libc.a(lib_a-wcrtomb.o)
 .debug_abbrev  0x000033aa      0x241 d:/11.2 2022.02/bin/../lib/gcc/arm-none-eabi/11.2.1/thumb/v7e-m+fp/hard\libc.a(lib_a-wcsrtombs.o)
 .debug_abbrev  0x000035eb      0x371 d:/11.2 2022.02/bin/../lib/gcc/arm-none-eabi/11.2.1/thumb/v7e-m+fp/hard\libc.a(lib_a-dtoa.o)
 .debug_abbrev  0x0000395c      0x2c2 d:/11.2 2022.02/bin/../lib/gcc/arm-none-eabi/11.2.1/thumb/v7e-m+fp/hard\libc.a(lib_a-freer.o)
 .debug_abbrev  0x00003c1e      0x28a d:/11.2 2022.02/bin/../lib/gcc/arm-none-eabi/11.2.1/thumb/v7e-m+fp/hard\libc.a(lib_a-localeconv.o)
 .debug_abbrev  0x00003ea8      0x446 d:/11.2 2022.02/bin/../lib/gcc/arm-none-eabi/11.2.1/thumb/v7e-m+fp/hard\libc.a(lib_a-locale.o)
 .debug_abbrev  0x000042ee      0x309 d:/11.2 2022.02/bin/../lib/gcc/arm-none-eabi/11.2.1/thumb/v7e-m+fp/hard\libc.a(lib_a-mallocr.o)
 .debug_abbrev  0x000045f7      0x332 d:/11.2 2022.02/bin/../lib/gcc/arm-none-eabi/11.2.1/thumb/v7e-m+fp/hard\libc.a(lib_a-mbtowc_r.o)
 .debug_abbrev  0x00004929       0x14 d:/11.2 2022.02/bin/../lib/gcc/arm-none-eabi/11.2.1/thumb/v7e-m+fp/hard\libc.a(lib_a-memchr.o)
 .debug_abbrev  0x0000493d       0x14 d:/11.2 2022.02/bin/../lib/gcc/arm-none-eabi/11.2.1/thumb/v7e-m+fp/hard\libc.a(lib_a-memcpy.o)
 .debug_abbrev  0x00004951      0x202 d:/11.2 2022.02/bin/../lib/gcc/arm-none-eabi/11.2.1/thumb/v7e-m+fp/hard\libc.a(lib_a-mlock.o)
 .debug_abbrev  0x00004b53      0x4e5 d:/11.2 2022.02/bin/../lib/gcc/arm-none-eabi/11.2.1/thumb/v7e-m+fp/hard\libc.a(lib_a-mprec.o)
 .debug_abbrev  0x00005038      0x24a d:/11.2 2022.02/bin/../lib/gcc/arm-none-eabi/11.2.1/thumb/v7e-m+fp/hard\libc.a(lib_a-sbrkr.o)
 .debug_abbrev  0x00005282      0x162 d:/11.2 2022.02/bin/../lib/gcc/arm-none-eabi/11.2.1/thumb/v7e-m+fp/hard\libc.a(lib_a-s_frexp.o)
 .debug_abbrev  0x000053e4       0xbe d:/11.2 2022.02/bin/../lib/gcc/arm-none-eabi/11.2.1/thumb/v7e-m+fp/hard\libc.a(lib_a-strncpy.o)
 .debug_abbrev  0x000054a2      0x36a d:/11.2 2022.02/bin/../lib/gcc/arm-none-eabi/11.2.1/thumb/v7e-m+fp/hard\libc.a(lib_a-svfiprintf.o)
 .debug_abbrev  0x0000580c      0x2a6 d:/11.2 2022.02/bin/../lib/gcc/arm-none-eabi/11.2.1/thumb/v7e-m+fp/hard\libc.a(lib_a-wcsnrtombs.o)
 .debug_abbrev  0x00005ab2      0x29d d:/11.2 2022.02/bin/../lib/gcc/arm-none-eabi/11.2.1/thumb/v7e-m+fp/hard\libc.a(lib_a-wctomb_r.o)
 .debug_abbrev  0x00005d4f      0x25a d:/11.2 2022.02/bin/../lib/gcc/arm-none-eabi/11.2.1/thumb/v7e-m+fp/hard\libc.a(lib_a-assert.o)
 .debug_abbrev  0x00005fa9      0x28d d:/11.2 2022.02/bin/../lib/gcc/arm-none-eabi/11.2.1/thumb/v7e-m+fp/hard\libc.a(lib_a-callocr.o)
 .debug_abbrev  0x00006236      0x20e d:/11.2 2022.02/bin/../lib/gcc/arm-none-eabi/11.2.1/thumb/v7e-m+fp/hard\libc.a(lib_a-ctype_.o)
 .debug_abbrev  0x00006444      0x1ce d:/11.2 2022.02/bin/../lib/gcc/arm-none-eabi/11.2.1/thumb/v7e-m+fp/hard\libc.a(lib_a-errno.o)
 .debug_abbrev  0x00006612      0x286 d:/11.2 2022.02/bin/../lib/gcc/arm-none-eabi/11.2.1/thumb/v7e-m+fp/hard\libc.a(lib_a-fiprintf.o)
 .debug_abbrev  0x00006898       0xc3 d:/11.2 2022.02/bin/../lib/gcc/arm-none-eabi/11.2.1/thumb/v7e-m+fp/hard\libc.a(lib_a-memmove.o)
 .debug_abbrev  0x0000695b      0x2a1 d:/11.2 2022.02/bin/../lib/gcc/arm-none-eabi/11.2.1/thumb/v7e-m+fp/hard\libc.a(lib_a-reallocr.o)
 .debug_abbrev  0x00006bfc      0x2fe d:/11.2 2022.02/bin/../lib/gcc/arm-none-eabi/11.2.1/thumb/v7e-m+fp/hard\libc.a(lib_a-reent.o)
 .debug_abbrev  0x00006efa      0x4b2 d:/11.2 2022.02/bin/../lib/gcc/arm-none-eabi/11.2.1/thumb/v7e-m+fp/hard\libc.a(lib_a-vfiprintf.o)
 .debug_abbrev  0x000073ac      0x252 d:/11.2 2022.02/bin/../lib/gcc/arm-none-eabi/11.2.1/thumb/v7e-m+fp/hard\libc.a(lib_a-wsetup.o)
 .debug_abbrev  0x000075fe       0x99 d:/11.2 2022.02/bin/../lib/gcc/arm-none-eabi/11.2.1/thumb/v7e-m+fp/hard\libc.a(lib_a-abort.o)
 .debug_abbrev  0x00007697      0x354 d:/11.2 2022.02/bin/../lib/gcc/arm-none-eabi/11.2.1/thumb/v7e-m+fp/hard\libc.a(lib_a-fflush.o)
 .debug_abbrev  0x000079eb      0x452 d:/11.2 2022.02/bin/../lib/gcc/arm-none-eabi/11.2.1/thumb/v7e-m+fp/hard\libc.a(lib_a-findfp.o)
 .debug_abbrev  0x00007e3d      0x388 d:/11.2 2022.02/bin/../lib/gcc/arm-none-eabi/11.2.1/thumb/v7e-m+fp/hard\libc.a(lib_a-fputwc.o)
 .debug_abbrev  0x000081c5      0x28b d:/11.2 2022.02/bin/../lib/gcc/arm-none-eabi/11.2.1/thumb/v7e-m+fp/hard\libc.a(lib_a-fvwrite.o)
 .debug_abbrev  0x00008450      0x20f d:/11.2 2022.02/bin/../lib/gcc/arm-none-eabi/11.2.1/thumb/v7e-m+fp/hard\libc.a(lib_a-fwalk.o)
 .debug_abbrev  0x0000865f      0x30a d:/11.2 2022.02/bin/../lib/gcc/arm-none-eabi/11.2.1/thumb/v7e-m+fp/hard\libc.a(lib_a-makebuf.o)
 .debug_abbrev  0x00008969      0x346 d:/11.2 2022.02/bin/../lib/gcc/arm-none-eabi/11.2.1/thumb/v7e-m+fp/hard\libc.a(lib_a-signal.o)
 .debug_abbrev  0x00008caf      0x26d d:/11.2 2022.02/bin/../lib/gcc/arm-none-eabi/11.2.1/thumb/v7e-m+fp/hard\libc.a(lib_a-signalr.o)
 .debug_abbrev  0x00008f1c      0x294 d:/11.2 2022.02/bin/../lib/gcc/arm-none-eabi/11.2.1/thumb/v7e-m+fp/hard\libc.a(lib_a-stdio.o)
 .debug_abbrev  0x000091b0      0x2a6 d:/11.2 2022.02/bin/../lib/gcc/arm-none-eabi/11.2.1/thumb/v7e-m+fp/hard\libc.a(lib_a-wbuf.o)
 .debug_abbrev  0x00009456      0x225 d:/11.2 2022.02/bin/../lib/gcc/arm-none-eabi/11.2.1/thumb/v7e-m+fp/hard\libc.a(lib_a-writer.o)
 .debug_abbrev  0x0000967b      0x220 d:/11.2 2022.02/bin/../lib/gcc/arm-none-eabi/11.2.1/thumb/v7e-m+fp/hard\libc.a(lib_a-closer.o)
 .debug_abbrev  0x0000989b      0x321 d:/11.2 2022.02/bin/../lib/gcc/arm-none-eabi/11.2.1/thumb/v7e-m+fp/hard\libc.a(lib_a-fclose.o)
 .debug_abbrev  0x00009bbc      0x233 d:/11.2 2022.02/bin/../lib/gcc/arm-none-eabi/11.2.1/thumb/v7e-m+fp/hard\libc.a(lib_a-fstatr.o)
 .debug_abbrev  0x00009def      0x220 d:/11.2 2022.02/bin/../lib/gcc/arm-none-eabi/11.2.1/thumb/v7e-m+fp/hard\libc.a(lib_a-isattyr.o)
 .debug_abbrev  0x0000a00f      0x234 d:/11.2 2022.02/bin/../lib/gcc/arm-none-eabi/11.2.1/thumb/v7e-m+fp/hard\libc.a(lib_a-lseekr.o)
 .debug_abbrev  0x0000a243      0x220 d:/11.2 2022.02/bin/../lib/gcc/arm-none-eabi/11.2.1/thumb/v7e-m+fp/hard\libc.a(lib_a-readr.o)
 .debug_abbrev  0x0000a463       0x6c d:/11.2 2022.02/bin/../lib/gcc/arm-none-eabi/11.2.1/thumb/v7e-m+fp/hard\libnosys.a(close.o)
 .debug_abbrev  0x0000a4cf       0xcc d:/11.2 2022.02/bin/../lib/gcc/arm-none-eabi/11.2.1/thumb/v7e-m+fp/hard\libnosys.a(fstat.o)
 .debug_abbrev  0x0000a59b       0x58 d:/11.2 2022.02/bin/../lib/gcc/arm-none-eabi/11.2.1/thumb/v7e-m+fp/hard\libnosys.a(getpid.o)
 .debug_abbrev  0x0000a5f3       0x6c d:/11.2 2022.02/bin/../lib/gcc/arm-none-eabi/11.2.1/thumb/v7e-m+fp/hard\libnosys.a(isatty.o)
 .debug_abbrev  0x0000a65f       0x7d d:/11.2 2022.02/bin/../lib/gcc/arm-none-eabi/11.2.1/thumb/v7e-m+fp/hard\libnosys.a(kill.o)
 .debug_abbrev  0x0000a6dc       0x91 d:/11.2 2022.02/bin/../lib/gcc/arm-none-eabi/11.2.1/thumb/v7e-m+fp/hard\libnosys.a(lseek.o)
 .debug_abbrev  0x0000a76d       0x9a d:/11.2 2022.02/bin/../lib/gcc/arm-none-eabi/11.2.1/thumb/v7e-m+fp/hard\libnosys.a(read.o)
 .debug_abbrev  0x0000a807       0xa1 d:/11.2 2022.02/bin/../lib/gcc/arm-none-eabi/11.2.1/thumb/v7e-m+fp/hard\libnosys.a(sbrk.o)
 .debug_abbrev  0x0000a8a8       0x9a d:/11.2 2022.02/bin/../lib/gcc/arm-none-eabi/11.2.1/thumb/v7e-m+fp/hard\libnosys.a(write.o)
 .debug_abbrev  0x0000a942       0x60 d:/11.2 2022.02/bin/../lib/gcc/arm-none-eabi/11.2.1/thumb/v7e-m+fp/hard\libnosys.a(_exit.o)
 .debug_abbrev  0x0000a9a2       0x14 d:/11.2 2022.02/bin/../lib/gcc/arm-none-eabi/11.2.1/thumb/v7e-m+fp/hard\libgcc.a(_arm_addsubdf3.o)
 .debug_abbrev  0x0000a9b6       0x14 d:/11.2 2022.02/bin/../lib/gcc/arm-none-eabi/11.2.1/thumb/v7e-m+fp/hard\libgcc.a(_arm_muldivdf3.o)
 .debug_abbrev  0x0000a9ca       0x14 d:/11.2 2022.02/bin/../lib/gcc/arm-none-eabi/11.2.1/thumb/v7e-m+fp/hard\libgcc.a(_arm_cmpdf2.o)
 .debug_abbrev  0x0000a9de       0x14 d:/11.2 2022.02/bin/../lib/gcc/arm-none-eabi/11.2.1/thumb/v7e-m+fp/hard\libgcc.a(_arm_unorddf2.o)
 .debug_abbrev  0x0000a9f2       0x14 d:/11.2 2022.02/bin/../lib/gcc/arm-none-eabi/11.2.1/thumb/v7e-m+fp/hard\libgcc.a(_arm_fixdfsi.o)
 .debug_abbrev  0x0000aa06       0x14 d:/11.2 2022.02/bin/../lib/gcc/arm-none-eabi/11.2.1/thumb/v7e-m+fp/hard\libgcc.a(_aeabi_uldivmod.o)
 .debug_abbrev  0x0000aa1a      0x16a d:/11.2 2022.02/bin/../lib/gcc/arm-none-eabi/11.2.1/thumb/v7e-m+fp/hard\libgcc.a(_udivmoddi4.o)
 .debug_abbrev  0x0000ab84       0x14 d:/11.2 2022.02/bin/../lib/gcc/arm-none-eabi/11.2.1/thumb/v7e-m+fp/hard\libgcc.a(_dvmd_tls.o)

.debug_loc      0x00000000    0x10019
 .debug_loc     0x00000000       0xaf build/main.o
 .debug_loc     0x000000af       0x39 build/gpio.o
 .debug_loc     0x000000e8       0x60 build/stm32f4xx_it.o
 .debug_loc     0x00000148       0x2c build/stm32f4xx_hal_msp.o
 .debug_loc     0x00000174     0x5be0 build/stm32f4xx_hal_tim.o
 .debug_loc     0x00005d54     0x2161 build/stm32f4xx_hal_tim_ex.o
 .debug_loc     0x00007eb5      0x6e4 build/stm32f4xx_hal_rcc.o
 .debug_loc     0x00008599      0x5db build/stm32f4xx_hal_gpio.o
 .debug_loc     0x00008b74      0xd6d build/stm32f4xx_hal_dma.o
 .debug_loc     0x000098e1      0x831 build/stm32f4xx_hal_cortex.o
 .debug_loc     0x0000a112      0x1e1 build/stm32f4xx_hal.o
 .debug_loc     0x0000a2f3      0x158 build/system_stm32f4xx.o
 .debug_loc     0x0000a44b       0x38 build/dma.o
 .debug_loc     0x0000a483      0x39e build/tim.o
 .debug_loc     0x0000a821      0x225 build/usart.o
 .debug_loc     0x0000aa46     0x4f99 build/stm32f4xx_hal_uart.o
 .debug_loc     0x0000f9df      0x63a build/pid.o

.debug_aranges  0x00000000     0x17d0
 .debug_aranges
                0x00000000       0x30 build/main.o
 .debug_aranges
                0x00000030       0x20 build/gpio.o
 .debug_aranges
                0x00000050       0x70 build/stm32f4xx_it.o
 .debug_aranges
                0x000000c0       0x20 build/stm32f4xx_hal_msp.o
 .debug_aranges
                0x000000e0      0x3d0 build/stm32f4xx_hal_tim.o
 .debug_aranges
                0x000004b0      0x168 build/stm32f4xx_hal_tim_ex.o
 .debug_aranges
                0x00000618       0x88 build/stm32f4xx_hal_rcc.o
 .debug_aranges
                0x000006a0       0x58 build/stm32f4xx_hal_gpio.o
 .debug_aranges
                0x000006f8       0x90 build/stm32f4xx_hal_dma.o
 .debug_aranges
                0x00000788       0xa8 build/stm32f4xx_hal_cortex.o
 .debug_aranges
                0x00000830       0xf0 build/stm32f4xx_hal.o
 .debug_aranges
                0x00000920       0x28 build/system_stm32f4xx.o
 .debug_aranges
                0x00000948       0x20 build/dma.o
 .debug_aranges
                0x00000968       0x68 build/tim.o
 .debug_aranges
                0x000009d0       0x48 build/usart.o
 .debug_aranges
                0x00000a18      0x200 build/stm32f4xx_hal_uart.o
 .debug_aranges
                0x00000c18       0x58 build/pid.o
 .debug_aranges
                0x00000c70       0x28 build/startup_stm32f407xx.o
 .debug_aranges
                0x00000c98       0x18 d:/11.2 2022.02/bin/../lib/gcc/arm-none-eabi/11.2.1/thumb/v7e-m+fp/hard\libc.a(lib_a-impure.o)
 .debug_aranges
                0x00000cb0       0x20 d:/11.2 2022.02/bin/../lib/gcc/arm-none-eabi/11.2.1/thumb/v7e-m+fp/hard\libc.a(lib_a-init.o)
 .debug_aranges
                0x00000cd0       0x20 d:/11.2 2022.02/bin/../lib/gcc/arm-none-eabi/11.2.1/thumb/v7e-m+fp/hard\libc.a(lib_a-memset.o)
 .debug_aranges
                0x00000cf0       0x20 d:/11.2 2022.02/bin/../lib/gcc/arm-none-eabi/11.2.1/thumb/v7e-m+fp/hard\libc.a(lib_a-strlen.o)
 .debug_aranges
                0x00000d10       0x28 d:/11.2 2022.02/bin/../lib/gcc/arm-none-eabi/11.2.1/thumb/v7e-m+fp/hard\libc.a(lib_a-vsprintf.o)
 .debug_aranges
                0x00000d38       0x20 d:/11.2 2022.02/bin/../lib/gcc/arm-none-eabi/11.2.1/thumb/v7e-m+fp/hard\libc.a(lib_a-svfprintf.o)
 .debug_aranges
                0x00000d58       0x28 d:/11.2 2022.02/bin/../lib/gcc/arm-none-eabi/11.2.1/thumb/v7e-m+fp/hard\libc.a(lib_a-wcrtomb.o)
 .debug_aranges
                0x00000d80       0x28 d:/11.2 2022.02/bin/../lib/gcc/arm-none-eabi/11.2.1/thumb/v7e-m+fp/hard\libc.a(lib_a-wcsrtombs.o)
 .debug_aranges
                0x00000da8       0x28 d:/11.2 2022.02/bin/../lib/gcc/arm-none-eabi/11.2.1/thumb/v7e-m+fp/hard\libc.a(lib_a-dtoa.o)
 .debug_aranges
                0x00000dd0       0x28 d:/11.2 2022.02/bin/../lib/gcc/arm-none-eabi/11.2.1/thumb/v7e-m+fp/hard\libc.a(lib_a-freer.o)
 .debug_aranges
                0x00000df8       0x30 d:/11.2 2022.02/bin/../lib/gcc/arm-none-eabi/11.2.1/thumb/v7e-m+fp/hard\libc.a(lib_a-localeconv.o)
 .debug_aranges
                0x00000e28       0x50 d:/11.2 2022.02/bin/../lib/gcc/arm-none-eabi/11.2.1/thumb/v7e-m+fp/hard\libc.a(lib_a-locale.o)
 .debug_aranges
                0x00000e78       0x20 d:/11.2 2022.02/bin/../lib/gcc/arm-none-eabi/11.2.1/thumb/v7e-m+fp/hard\libc.a(lib_a-mallocr.o)
 .debug_aranges
                0x00000e98       0x48 d:/11.2 2022.02/bin/../lib/gcc/arm-none-eabi/11.2.1/thumb/v7e-m+fp/hard\libc.a(lib_a-mbtowc_r.o)
 .debug_aranges
                0x00000ee0       0x20 d:/11.2 2022.02/bin/../lib/gcc/arm-none-eabi/11.2.1/thumb/v7e-m+fp/hard\libc.a(lib_a-memchr.o)
 .debug_aranges
                0x00000f00       0x20 d:/11.2 2022.02/bin/../lib/gcc/arm-none-eabi/11.2.1/thumb/v7e-m+fp/hard\libc.a(lib_a-memcpy.o)
 .debug_aranges
                0x00000f20       0x20 d:/11.2 2022.02/bin/../lib/gcc/arm-none-eabi/11.2.1/thumb/v7e-m+fp/hard\libc.a(lib_a-mlock.o)
 .debug_aranges
                0x00000f40       0xb0 d:/11.2 2022.02/bin/../lib/gcc/arm-none-eabi/11.2.1/thumb/v7e-m+fp/hard\libc.a(lib_a-mprec.o)
 .debug_aranges
                0x00000ff0       0x20 d:/11.2 2022.02/bin/../lib/gcc/arm-none-eabi/11.2.1/thumb/v7e-m+fp/hard\libc.a(lib_a-sbrkr.o)
 .debug_aranges
                0x00001010       0x20 d:/11.2 2022.02/bin/../lib/gcc/arm-none-eabi/11.2.1/thumb/v7e-m+fp/hard\libc.a(lib_a-s_frexp.o)
 .debug_aranges
                0x00001030       0x20 d:/11.2 2022.02/bin/../lib/gcc/arm-none-eabi/11.2.1/thumb/v7e-m+fp/hard\libc.a(lib_a-strncpy.o)
 .debug_aranges
                0x00001050       0x28 d:/11.2 2022.02/bin/../lib/gcc/arm-none-eabi/11.2.1/thumb/v7e-m+fp/hard\libc.a(lib_a-svfiprintf.o)
 .debug_aranges
                0x00001078       0x30 d:/11.2 2022.02/bin/../lib/gcc/arm-none-eabi/11.2.1/thumb/v7e-m+fp/hard\libc.a(lib_a-wcsnrtombs.o)
 .debug_aranges
                0x000010a8       0x48 d:/11.2 2022.02/bin/../lib/gcc/arm-none-eabi/11.2.1/thumb/v7e-m+fp/hard\libc.a(lib_a-wctomb_r.o)
 .debug_aranges
                0x000010f0       0x28 d:/11.2 2022.02/bin/../lib/gcc/arm-none-eabi/11.2.1/thumb/v7e-m+fp/hard\libc.a(lib_a-assert.o)
 .debug_aranges
                0x00001118       0x20 d:/11.2 2022.02/bin/../lib/gcc/arm-none-eabi/11.2.1/thumb/v7e-m+fp/hard\libc.a(lib_a-callocr.o)
 .debug_aranges
                0x00001138       0x20 d:/11.2 2022.02/bin/../lib/gcc/arm-none-eabi/11.2.1/thumb/v7e-m+fp/hard\libc.a(lib_a-ctype_.o)
 .debug_aranges
                0x00001158       0x20 d:/11.2 2022.02/bin/../lib/gcc/arm-none-eabi/11.2.1/thumb/v7e-m+fp/hard\libc.a(lib_a-errno.o)
 .debug_aranges
                0x00001178       0x28 d:/11.2 2022.02/bin/../lib/gcc/arm-none-eabi/11.2.1/thumb/v7e-m+fp/hard\libc.a(lib_a-fiprintf.o)
 .debug_aranges
                0x000011a0       0x20 d:/11.2 2022.02/bin/../lib/gcc/arm-none-eabi/11.2.1/thumb/v7e-m+fp/hard\libc.a(lib_a-memmove.o)
 .debug_aranges
                0x000011c0       0x20 d:/11.2 2022.02/bin/../lib/gcc/arm-none-eabi/11.2.1/thumb/v7e-m+fp/hard\libc.a(lib_a-reallocr.o)
 .debug_aranges
                0x000011e0       0x28 d:/11.2 2022.02/bin/../lib/gcc/arm-none-eabi/11.2.1/thumb/v7e-m+fp/hard\libc.a(lib_a-reent.o)
 .debug_aranges
                0x00001208       0x40 d:/11.2 2022.02/bin/../lib/gcc/arm-none-eabi/11.2.1/thumb/v7e-m+fp/hard\libc.a(lib_a-vfiprintf.o)
 .debug_aranges
                0x00001248       0x20 d:/11.2 2022.02/bin/../lib/gcc/arm-none-eabi/11.2.1/thumb/v7e-m+fp/hard\libc.a(lib_a-wsetup.o)
 .debug_aranges
                0x00001268       0x20 d:/11.2 2022.02/bin/../lib/gcc/arm-none-eabi/11.2.1/thumb/v7e-m+fp/hard\libc.a(lib_a-abort.o)
 .debug_aranges
                0x00001288       0x30 d:/11.2 2022.02/bin/../lib/gcc/arm-none-eabi/11.2.1/thumb/v7e-m+fp/hard\libc.a(lib_a-fflush.o)
 .debug_aranges
                0x000012b8       0x68 d:/11.2 2022.02/bin/../lib/gcc/arm-none-eabi/11.2.1/thumb/v7e-m+fp/hard\libc.a(lib_a-findfp.o)
 .debug_aranges
                0x00001320       0x30 d:/11.2 2022.02/bin/../lib/gcc/arm-none-eabi/11.2.1/thumb/v7e-m+fp/hard\libc.a(lib_a-fputwc.o)
 .debug_aranges
                0x00001350       0x20 d:/11.2 2022.02/bin/../lib/gcc/arm-none-eabi/11.2.1/thumb/v7e-m+fp/hard\libc.a(lib_a-fvwrite.o)
 .debug_aranges
                0x00001370       0x28 d:/11.2 2022.02/bin/../lib/gcc/arm-none-eabi/11.2.1/thumb/v7e-m+fp/hard\libc.a(lib_a-fwalk.o)
 .debug_aranges
                0x00001398       0x28 d:/11.2 2022.02/bin/../lib/gcc/arm-none-eabi/11.2.1/thumb/v7e-m+fp/hard\libc.a(lib_a-makebuf.o)
 .debug_aranges
                0x000013c0       0x58 d:/11.2 2022.02/bin/../lib/gcc/arm-none-eabi/11.2.1/thumb/v7e-m+fp/hard\libc.a(lib_a-signal.o)
 .debug_aranges
                0x00001418       0x28 d:/11.2 2022.02/bin/../lib/gcc/arm-none-eabi/11.2.1/thumb/v7e-m+fp/hard\libc.a(lib_a-signalr.o)
 .debug_aranges
                0x00001440       0x40 d:/11.2 2022.02/bin/../lib/gcc/arm-none-eabi/11.2.1/thumb/v7e-m+fp/hard\libc.a(lib_a-stdio.o)
 .debug_aranges
                0x00001480       0x28 d:/11.2 2022.02/bin/../lib/gcc/arm-none-eabi/11.2.1/thumb/v7e-m+fp/hard\libc.a(lib_a-wbuf.o)
 .debug_aranges
                0x000014a8       0x20 d:/11.2 2022.02/bin/../lib/gcc/arm-none-eabi/11.2.1/thumb/v7e-m+fp/hard\libc.a(lib_a-writer.o)
 .debug_aranges
                0x000014c8       0x20 d:/11.2 2022.02/bin/../lib/gcc/arm-none-eabi/11.2.1/thumb/v7e-m+fp/hard\libc.a(lib_a-closer.o)
 .debug_aranges
                0x000014e8       0x28 d:/11.2 2022.02/bin/../lib/gcc/arm-none-eabi/11.2.1/thumb/v7e-m+fp/hard\libc.a(lib_a-fclose.o)
 .debug_aranges
                0x00001510       0x20 d:/11.2 2022.02/bin/../lib/gcc/arm-none-eabi/11.2.1/thumb/v7e-m+fp/hard\libc.a(lib_a-fstatr.o)
 .debug_aranges
                0x00001530       0x20 d:/11.2 2022.02/bin/../lib/gcc/arm-none-eabi/11.2.1/thumb/v7e-m+fp/hard\libc.a(lib_a-isattyr.o)
 .debug_aranges
                0x00001550       0x20 d:/11.2 2022.02/bin/../lib/gcc/arm-none-eabi/11.2.1/thumb/v7e-m+fp/hard\libc.a(lib_a-lseekr.o)
 .debug_aranges
                0x00001570       0x20 d:/11.2 2022.02/bin/../lib/gcc/arm-none-eabi/11.2.1/thumb/v7e-m+fp/hard\libc.a(lib_a-readr.o)
 .debug_aranges
                0x00001590       0x20 d:/11.2 2022.02/bin/../lib/gcc/arm-none-eabi/11.2.1/thumb/v7e-m+fp/hard\libnosys.a(close.o)
 .debug_aranges
                0x000015b0       0x20 d:/11.2 2022.02/bin/../lib/gcc/arm-none-eabi/11.2.1/thumb/v7e-m+fp/hard\libnosys.a(fstat.o)
 .debug_aranges
                0x000015d0       0x20 d:/11.2 2022.02/bin/../lib/gcc/arm-none-eabi/11.2.1/thumb/v7e-m+fp/hard\libnosys.a(getpid.o)
 .debug_aranges
                0x000015f0       0x20 d:/11.2 2022.02/bin/../lib/gcc/arm-none-eabi/11.2.1/thumb/v7e-m+fp/hard\libnosys.a(isatty.o)
 .debug_aranges
                0x00001610       0x20 d:/11.2 2022.02/bin/../lib/gcc/arm-none-eabi/11.2.1/thumb/v7e-m+fp/hard\libnosys.a(kill.o)
 .debug_aranges
                0x00001630       0x20 d:/11.2 2022.02/bin/../lib/gcc/arm-none-eabi/11.2.1/thumb/v7e-m+fp/hard\libnosys.a(lseek.o)
 .debug_aranges
                0x00001650       0x20 d:/11.2 2022.02/bin/../lib/gcc/arm-none-eabi/11.2.1/thumb/v7e-m+fp/hard\libnosys.a(read.o)
 .debug_aranges
                0x00001670       0x20 d:/11.2 2022.02/bin/../lib/gcc/arm-none-eabi/11.2.1/thumb/v7e-m+fp/hard\libnosys.a(sbrk.o)
 .debug_aranges
                0x00001690       0x20 d:/11.2 2022.02/bin/../lib/gcc/arm-none-eabi/11.2.1/thumb/v7e-m+fp/hard\libnosys.a(write.o)
 .debug_aranges
                0x000016b0       0x20 d:/11.2 2022.02/bin/../lib/gcc/arm-none-eabi/11.2.1/thumb/v7e-m+fp/hard\libnosys.a(_exit.o)
 .debug_aranges
                0x000016d0       0x20 d:/11.2 2022.02/bin/../lib/gcc/arm-none-eabi/11.2.1/thumb/v7e-m+fp/hard\libgcc.a(_arm_addsubdf3.o)
 .debug_aranges
                0x000016f0       0x20 d:/11.2 2022.02/bin/../lib/gcc/arm-none-eabi/11.2.1/thumb/v7e-m+fp/hard\libgcc.a(_arm_muldivdf3.o)
 .debug_aranges
                0x00001710       0x20 d:/11.2 2022.02/bin/../lib/gcc/arm-none-eabi/11.2.1/thumb/v7e-m+fp/hard\libgcc.a(_arm_cmpdf2.o)
 .debug_aranges
                0x00001730       0x20 d:/11.2 2022.02/bin/../lib/gcc/arm-none-eabi/11.2.1/thumb/v7e-m+fp/hard\libgcc.a(_arm_unorddf2.o)
 .debug_aranges
                0x00001750       0x20 d:/11.2 2022.02/bin/../lib/gcc/arm-none-eabi/11.2.1/thumb/v7e-m+fp/hard\libgcc.a(_arm_fixdfsi.o)
 .debug_aranges
                0x00001770       0x20 d:/11.2 2022.02/bin/../lib/gcc/arm-none-eabi/11.2.1/thumb/v7e-m+fp/hard\libgcc.a(_aeabi_uldivmod.o)
 .debug_aranges
                0x00001790       0x20 d:/11.2 2022.02/bin/../lib/gcc/arm-none-eabi/11.2.1/thumb/v7e-m+fp/hard\libgcc.a(_udivmoddi4.o)
 .debug_aranges
                0x000017b0       0x20 d:/11.2 2022.02/bin/../lib/gcc/arm-none-eabi/11.2.1/thumb/v7e-m+fp/hard\libgcc.a(_dvmd_tls.o)

.debug_ranges   0x00000000      0xc10
 .debug_ranges  0x00000000       0x20 build/main.o
 .debug_ranges  0x00000020       0x10 build/gpio.o
 .debug_ranges  0x00000030       0x60 build/stm32f4xx_it.o
 .debug_ranges  0x00000090       0x10 build/stm32f4xx_hal_msp.o
 .debug_ranges  0x000000a0      0x3c0 build/stm32f4xx_hal_tim.o
 .debug_ranges  0x00000460      0x158 build/stm32f4xx_hal_tim_ex.o
 .debug_ranges  0x000005b8       0x90 build/stm32f4xx_hal_rcc.o
 .debug_ranges  0x00000648       0x48 build/stm32f4xx_hal_gpio.o
 .debug_ranges  0x00000690       0x80 build/stm32f4xx_hal_dma.o
 .debug_ranges  0x00000710       0xf8 build/stm32f4xx_hal_cortex.o
 .debug_ranges  0x00000808       0xe0 build/stm32f4xx_hal.o
 .debug_ranges  0x000008e8       0x18 build/system_stm32f4xx.o
 .debug_ranges  0x00000900       0x10 build/dma.o
 .debug_ranges  0x00000910       0x58 build/tim.o
 .debug_ranges  0x00000968       0x38 build/usart.o
 .debug_ranges  0x000009a0      0x208 build/stm32f4xx_hal_uart.o
 .debug_ranges  0x00000ba8       0x48 build/pid.o
 .debug_ranges  0x00000bf0       0x20 build/startup_stm32f407xx.o

.debug_line     0x00000000    0x220b1
 .debug_line    0x00000000      0x372 build/main.o
 .debug_line    0x00000372      0x1a4 build/gpio.o
 .debug_line    0x00000516      0x28b build/stm32f4xx_it.o
 .debug_line    0x000007a1      0x114 build/stm32f4xx_hal_msp.o
 .debug_line    0x000008b5     0x4a55 build/stm32f4xx_hal_tim.o
 .debug_line    0x0000530a     0x1c7b build/stm32f4xx_hal_tim_ex.o
 .debug_line    0x00006f85      0xac1 build/stm32f4xx_hal_rcc.o
 .debug_line    0x00007a46      0x664 build/stm32f4xx_hal_gpio.o
 .debug_line    0x000080aa      0xde3 build/stm32f4xx_hal_dma.o
 .debug_line    0x00008e8d      0x731 build/stm32f4xx_hal_cortex.o
 .debug_line    0x000095be      0x51f build/stm32f4xx_hal.o
 .debug_line    0x00009add      0x20a build/system_stm32f4xx.o
 .debug_line    0x00009ce7      0x13f build/dma.o
 .debug_line    0x00009e26      0x757 build/tim.o
 .debug_line    0x0000a57d      0x5b0 build/usart.o
 .debug_line    0x0000ab2d     0x458b build/stm32f4xx_hal_uart.o
 .debug_line    0x0000f0b8      0x6fe build/pid.o
 .debug_line    0x0000f7b6       0x76 build/startup_stm32f407xx.o
 .debug_line    0x0000f82c      0x15b d:/11.2 2022.02/bin/../lib/gcc/arm-none-eabi/11.2.1/thumb/v7e-m+fp/hard\libc.a(lib_a-impure.o)
 .debug_line    0x0000f987      0x17e d:/11.2 2022.02/bin/../lib/gcc/arm-none-eabi/11.2.1/thumb/v7e-m+fp/hard\libc.a(lib_a-init.o)
 .debug_line    0x0000fb05      0x23d d:/11.2 2022.02/bin/../lib/gcc/arm-none-eabi/11.2.1/thumb/v7e-m+fp/hard\libc.a(lib_a-memset.o)
 .debug_line    0x0000fd42       0x87 d:/11.2 2022.02/bin/../lib/gcc/arm-none-eabi/11.2.1/thumb/v7e-m+fp/hard\libc.a(lib_a-strlen.o)
 .debug_line    0x0000fdc9      0x29c d:/11.2 2022.02/bin/../lib/gcc/arm-none-eabi/11.2.1/thumb/v7e-m+fp/hard\libc.a(lib_a-vsprintf.o)
 .debug_line    0x00010065     0x1eb2 d:/11.2 2022.02/bin/../lib/gcc/arm-none-eabi/11.2.1/thumb/v7e-m+fp/hard\libc.a(lib_a-svfprintf.o)
 .debug_line    0x00011f17      0x33e d:/11.2 2022.02/bin/../lib/gcc/arm-none-eabi/11.2.1/thumb/v7e-m+fp/hard\libc.a(lib_a-wcrtomb.o)
 .debug_line    0x00012255      0x204 d:/11.2 2022.02/bin/../lib/gcc/arm-none-eabi/11.2.1/thumb/v7e-m+fp/hard\libc.a(lib_a-wcsrtombs.o)
 .debug_line    0x00012459     0x1594 d:/11.2 2022.02/bin/../lib/gcc/arm-none-eabi/11.2.1/thumb/v7e-m+fp/hard\libc.a(lib_a-dtoa.o)
 .debug_line    0x000139ed      0x594 d:/11.2 2022.02/bin/../lib/gcc/arm-none-eabi/11.2.1/thumb/v7e-m+fp/hard\libc.a(lib_a-freer.o)
 .debug_line    0x00013f81      0x225 d:/11.2 2022.02/bin/../lib/gcc/arm-none-eabi/11.2.1/thumb/v7e-m+fp/hard\libc.a(lib_a-localeconv.o)
 .debug_line    0x000141a6      0xbbf d:/11.2 2022.02/bin/../lib/gcc/arm-none-eabi/11.2.1/thumb/v7e-m+fp/hard\libc.a(lib_a-locale.o)
 .debug_line    0x00014d65      0x948 d:/11.2 2022.02/bin/../lib/gcc/arm-none-eabi/11.2.1/thumb/v7e-m+fp/hard\libc.a(lib_a-mallocr.o)
 .debug_line    0x000156ad      0xad4 d:/11.2 2022.02/bin/../lib/gcc/arm-none-eabi/11.2.1/thumb/v7e-m+fp/hard\libc.a(lib_a-mbtowc_r.o)
 .debug_line    0x00016181       0x82 d:/11.2 2022.02/bin/../lib/gcc/arm-none-eabi/11.2.1/thumb/v7e-m+fp/hard\libc.a(lib_a-memchr.o)
 .debug_line    0x00016203       0x95 d:/11.2 2022.02/bin/../lib/gcc/arm-none-eabi/11.2.1/thumb/v7e-m+fp/hard\libc.a(lib_a-memcpy.o)
 .debug_line    0x00016298      0x1d2 d:/11.2 2022.02/bin/../lib/gcc/arm-none-eabi/11.2.1/thumb/v7e-m+fp/hard\libc.a(lib_a-mlock.o)
 .debug_line    0x0001646a     0x1787 d:/11.2 2022.02/bin/../lib/gcc/arm-none-eabi/11.2.1/thumb/v7e-m+fp/hard\libc.a(lib_a-mprec.o)
 .debug_line    0x00017bf1      0x217 d:/11.2 2022.02/bin/../lib/gcc/arm-none-eabi/11.2.1/thumb/v7e-m+fp/hard\libc.a(lib_a-sbrkr.o)
 .debug_line    0x00017e08      0x25a d:/11.2 2022.02/bin/../lib/gcc/arm-none-eabi/11.2.1/thumb/v7e-m+fp/hard\libc.a(lib_a-s_frexp.o)
 .debug_line    0x00018062      0x1fc d:/11.2 2022.02/bin/../lib/gcc/arm-none-eabi/11.2.1/thumb/v7e-m+fp/hard\libc.a(lib_a-strncpy.o)
 .debug_line    0x0001825e     0x121c d:/11.2 2022.02/bin/../lib/gcc/arm-none-eabi/11.2.1/thumb/v7e-m+fp/hard\libc.a(lib_a-svfiprintf.o)
 .debug_line    0x0001947a      0x450 d:/11.2 2022.02/bin/../lib/gcc/arm-none-eabi/11.2.1/thumb/v7e-m+fp/hard\libc.a(lib_a-wcsnrtombs.o)
 .debug_line    0x000198ca      0x636 d:/11.2 2022.02/bin/../lib/gcc/arm-none-eabi/11.2.1/thumb/v7e-m+fp/hard\libc.a(lib_a-wctomb_r.o)
 .debug_line    0x00019f00      0x22d d:/11.2 2022.02/bin/../lib/gcc/arm-none-eabi/11.2.1/thumb/v7e-m+fp/hard\libc.a(lib_a-assert.o)
 .debug_line    0x0001a12d      0x26c d:/11.2 2022.02/bin/../lib/gcc/arm-none-eabi/11.2.1/thumb/v7e-m+fp/hard\libc.a(lib_a-callocr.o)
 .debug_line    0x0001a399      0x265 d:/11.2 2022.02/bin/../lib/gcc/arm-none-eabi/11.2.1/thumb/v7e-m+fp/hard\libc.a(lib_a-ctype_.o)
 .debug_line    0x0001a5fe      0x180 d:/11.2 2022.02/bin/../lib/gcc/arm-none-eabi/11.2.1/thumb/v7e-m+fp/hard\libc.a(lib_a-errno.o)
 .debug_line    0x0001a77e      0x239 d:/11.2 2022.02/bin/../lib/gcc/arm-none-eabi/11.2.1/thumb/v7e-m+fp/hard\libc.a(lib_a-fiprintf.o)
 .debug_line    0x0001a9b7      0x265 d:/11.2 2022.02/bin/../lib/gcc/arm-none-eabi/11.2.1/thumb/v7e-m+fp/hard\libc.a(lib_a-memmove.o)
 .debug_line    0x0001ac1c      0x849 d:/11.2 2022.02/bin/../lib/gcc/arm-none-eabi/11.2.1/thumb/v7e-m+fp/hard\libc.a(lib_a-reallocr.o)
 .debug_line    0x0001b465      0x31b d:/11.2 2022.02/bin/../lib/gcc/arm-none-eabi/11.2.1/thumb/v7e-m+fp/hard\libc.a(lib_a-reent.o)
 .debug_line    0x0001b780     0x15b3 d:/11.2 2022.02/bin/../lib/gcc/arm-none-eabi/11.2.1/thumb/v7e-m+fp/hard\libc.a(lib_a-vfiprintf.o)
 .debug_line    0x0001cd33      0x38e d:/11.2 2022.02/bin/../lib/gcc/arm-none-eabi/11.2.1/thumb/v7e-m+fp/hard\libc.a(lib_a-wsetup.o)
 .debug_line    0x0001d0c1      0x16a d:/11.2 2022.02/bin/../lib/gcc/arm-none-eabi/11.2.1/thumb/v7e-m+fp/hard\libc.a(lib_a-abort.o)
 .debug_line    0x0001d22b      0x503 d:/11.2 2022.02/bin/../lib/gcc/arm-none-eabi/11.2.1/thumb/v7e-m+fp/hard\libc.a(lib_a-fflush.o)
 .debug_line    0x0001d72e      0x5ff d:/11.2 2022.02/bin/../lib/gcc/arm-none-eabi/11.2.1/thumb/v7e-m+fp/hard\libc.a(lib_a-findfp.o)
 .debug_line    0x0001dd2d      0x3b8 d:/11.2 2022.02/bin/../lib/gcc/arm-none-eabi/11.2.1/thumb/v7e-m+fp/hard\libc.a(lib_a-fputwc.o)
 .debug_line    0x0001e0e5      0x681 d:/11.2 2022.02/bin/../lib/gcc/arm-none-eabi/11.2.1/thumb/v7e-m+fp/hard\libc.a(lib_a-fvwrite.o)
 .debug_line    0x0001e766      0x310 d:/11.2 2022.02/bin/../lib/gcc/arm-none-eabi/11.2.1/thumb/v7e-m+fp/hard\libc.a(lib_a-fwalk.o)
 .debug_line    0x0001ea76      0x469 d:/11.2 2022.02/bin/../lib/gcc/arm-none-eabi/11.2.1/thumb/v7e-m+fp/hard\libc.a(lib_a-makebuf.o)
 .debug_line    0x0001eedf      0x71b d:/11.2 2022.02/bin/../lib/gcc/arm-none-eabi/11.2.1/thumb/v7e-m+fp/hard\libc.a(lib_a-signal.o)
 .debug_line    0x0001f5fa      0x250 d:/11.2 2022.02/bin/../lib/gcc/arm-none-eabi/11.2.1/thumb/v7e-m+fp/hard\libc.a(lib_a-signalr.o)
 .debug_line    0x0001f84a      0x2ef d:/11.2 2022.02/bin/../lib/gcc/arm-none-eabi/11.2.1/thumb/v7e-m+fp/hard\libc.a(lib_a-stdio.o)
 .debug_line    0x0001fb39      0x375 d:/11.2 2022.02/bin/../lib/gcc/arm-none-eabi/11.2.1/thumb/v7e-m+fp/hard\libc.a(lib_a-wbuf.o)
 .debug_line    0x0001feae      0x21d d:/11.2 2022.02/bin/../lib/gcc/arm-none-eabi/11.2.1/thumb/v7e-m+fp/hard\libc.a(lib_a-writer.o)
 .debug_line    0x000200cb      0x217 d:/11.2 2022.02/bin/../lib/gcc/arm-none-eabi/11.2.1/thumb/v7e-m+fp/hard\libc.a(lib_a-closer.o)
 .debug_line    0x000202e2      0x2ec d:/11.2 2022.02/bin/../lib/gcc/arm-none-eabi/11.2.1/thumb/v7e-m+fp/hard\libc.a(lib_a-fclose.o)
 .debug_line    0x000205ce      0x2b4 d:/11.2 2022.02/bin/../lib/gcc/arm-none-eabi/11.2.1/thumb/v7e-m+fp/hard\libc.a(lib_a-fstatr.o)
 .debug_line    0x00020882      0x218 d:/11.2 2022.02/bin/../lib/gcc/arm-none-eabi/11.2.1/thumb/v7e-m+fp/hard\libc.a(lib_a-isattyr.o)
 .debug_line    0x00020a9a      0x21d d:/11.2 2022.02/bin/../lib/gcc/arm-none-eabi/11.2.1/thumb/v7e-m+fp/hard\libc.a(lib_a-lseekr.o)
 .debug_line    0x00020cb7      0x21c d:/11.2 2022.02/bin/../lib/gcc/arm-none-eabi/11.2.1/thumb/v7e-m+fp/hard\libc.a(lib_a-readr.o)
 .debug_line    0x00020ed3       0x9a d:/11.2 2022.02/bin/../lib/gcc/arm-none-eabi/11.2.1/thumb/v7e-m+fp/hard\libnosys.a(close.o)
 .debug_line    0x00020f6d      0x19e d:/11.2 2022.02/bin/../lib/gcc/arm-none-eabi/11.2.1/thumb/v7e-m+fp/hard\libnosys.a(fstat.o)
 .debug_line    0x0002110b       0x9a d:/11.2 2022.02/bin/../lib/gcc/arm-none-eabi/11.2.1/thumb/v7e-m+fp/hard\libnosys.a(getpid.o)
 .debug_line    0x000211a5       0x9b d:/11.2 2022.02/bin/../lib/gcc/arm-none-eabi/11.2.1/thumb/v7e-m+fp/hard\libnosys.a(isatty.o)
 .debug_line    0x00021240       0x99 d:/11.2 2022.02/bin/../lib/gcc/arm-none-eabi/11.2.1/thumb/v7e-m+fp/hard\libnosys.a(kill.o)
 .debug_line    0x000212d9       0x9b d:/11.2 2022.02/bin/../lib/gcc/arm-none-eabi/11.2.1/thumb/v7e-m+fp/hard\libnosys.a(lseek.o)
 .debug_line    0x00021374       0x9a d:/11.2 2022.02/bin/../lib/gcc/arm-none-eabi/11.2.1/thumb/v7e-m+fp/hard\libnosys.a(read.o)
 .debug_line    0x0002140e       0xa3 d:/11.2 2022.02/bin/../lib/gcc/arm-none-eabi/11.2.1/thumb/v7e-m+fp/hard\libnosys.a(sbrk.o)
 .debug_line    0x000214b1       0x9b d:/11.2 2022.02/bin/../lib/gcc/arm-none-eabi/11.2.1/thumb/v7e-m+fp/hard\libnosys.a(write.o)
 .debug_line    0x0002154c       0x96 d:/11.2 2022.02/bin/../lib/gcc/arm-none-eabi/11.2.1/thumb/v7e-m+fp/hard\libnosys.a(_exit.o)
 .debug_line    0x000215e2      0x16f d:/11.2 2022.02/bin/../lib/gcc/arm-none-eabi/11.2.1/thumb/v7e-m+fp/hard\libgcc.a(_arm_addsubdf3.o)
 .debug_line    0x00021751      0x184 d:/11.2 2022.02/bin/../lib/gcc/arm-none-eabi/11.2.1/thumb/v7e-m+fp/hard\libgcc.a(_arm_muldivdf3.o)
 .debug_line    0x000218d5       0xa6 d:/11.2 2022.02/bin/../lib/gcc/arm-none-eabi/11.2.1/thumb/v7e-m+fp/hard\libgcc.a(_arm_cmpdf2.o)
 .debug_line    0x0002197b       0x57 d:/11.2 2022.02/bin/../lib/gcc/arm-none-eabi/11.2.1/thumb/v7e-m+fp/hard\libgcc.a(_arm_unorddf2.o)
 .debug_line    0x000219d2       0x62 d:/11.2 2022.02/bin/../lib/gcc/arm-none-eabi/11.2.1/thumb/v7e-m+fp/hard\libgcc.a(_arm_fixdfsi.o)
 .debug_line    0x00021a34       0x4e d:/11.2 2022.02/bin/../lib/gcc/arm-none-eabi/11.2.1/thumb/v7e-m+fp/hard\libgcc.a(_aeabi_uldivmod.o)
 .debug_line    0x00021a82      0x5e5 d:/11.2 2022.02/bin/../lib/gcc/arm-none-eabi/11.2.1/thumb/v7e-m+fp/hard\libgcc.a(_udivmoddi4.o)
 .debug_line    0x00022067       0x4a d:/11.2 2022.02/bin/../lib/gcc/arm-none-eabi/11.2.1/thumb/v7e-m+fp/hard\libgcc.a(_dvmd_tls.o)

.debug_str      0x00000000     0x73f0
 .debug_str     0x00000000      0xb06 build/main.o
                                0xbec (size before relaxing)
 .debug_str     0x00000b06       0x90 build/gpio.o
                                0x345 (size before relaxing)
 .debug_str     0x00000b96      0x113 build/stm32f4xx_it.o
                                0x4b9 (size before relaxing)
 .debug_str     0x00000ca9       0x29 build/stm32f4xx_hal_msp.o
                                0x286 (size before relaxing)
 .debug_str     0x00000cd2      0xf6f build/stm32f4xx_hal_tim.o
                               0x16ba (size before relaxing)
 .debug_str     0x00001c41      0x55b build/stm32f4xx_hal_tim_ex.o
                                0xed6 (size before relaxing)
 .debug_str     0x0000219c      0x223 build/stm32f4xx_hal_rcc.o
                                0x6d1 (size before relaxing)
 .debug_str     0x000023bf      0x127 build/stm32f4xx_hal_gpio.o
                                0x4ab (size before relaxing)
 .debug_str     0x000024e6      0x2cb build/stm32f4xx_hal_dma.o
                                0x741 (size before relaxing)
 .debug_str     0x000027b1      0x9f0 build/stm32f4xx_hal_cortex.o
                                0xbf7 (size before relaxing)
 .debug_str     0x000031a1      0x29f build/stm32f4xx_hal.o
                                0xb2f (size before relaxing)
 .debug_str     0x00003440       0x47 build/system_stm32f4xx.o
                                0x340 (size before relaxing)
 .debug_str     0x00003487        0xf build/dma.o
                                0x798 (size before relaxing)
 .debug_str     0x00003496       0x57 build/tim.o
                                0xb31 (size before relaxing)
 .debug_str     0x000034ed      0x265 build/usart.o
                                0x899 (size before relaxing)
 .debug_str     0x00003752      0x5e2 build/stm32f4xx_hal_uart.o
                                0xd24 (size before relaxing)
 .debug_str     0x00003d34      0x10a build/pid.o
                                0x98b (size before relaxing)
 .debug_str     0x00003e3e       0x22 build/startup_stm32f407xx.o
                                 0x3d (size before relaxing)
 .debug_str     0x00003e60      0x4f7 d:/11.2 2022.02/bin/../lib/gcc/arm-none-eabi/11.2.1/thumb/v7e-m+fp/hard\libc.a(lib_a-impure.o)
                                0x5ee (size before relaxing)
 .debug_str     0x00004357      0x13d d:/11.2 2022.02/bin/../lib/gcc/arm-none-eabi/11.2.1/thumb/v7e-m+fp/hard\libc.a(lib_a-init.o)
                                0x272 (size before relaxing)
 .debug_str     0x00004494       0xf7 d:/11.2 2022.02/bin/../lib/gcc/arm-none-eabi/11.2.1/thumb/v7e-m+fp/hard\libc.a(lib_a-memset.o)
                                0x227 (size before relaxing)
 .debug_str     0x0000458b       0x9c d:/11.2 2022.02/bin/../lib/gcc/arm-none-eabi/11.2.1/thumb/v7e-m+fp/hard\libc.a(lib_a-strlen.o)
                                 0xa8 (size before relaxing)
 .debug_str     0x00004627       0xfc d:/11.2 2022.02/bin/../lib/gcc/arm-none-eabi/11.2.1/thumb/v7e-m+fp/hard\libc.a(lib_a-vsprintf.o)
                                0x61e (size before relaxing)
 .debug_str     0x00004723      0x3bd d:/11.2 2022.02/bin/../lib/gcc/arm-none-eabi/11.2.1/thumb/v7e-m+fp/hard\libc.a(lib_a-svfprintf.o)
                                0xadb (size before relaxing)
 .debug_str     0x00004ae0       0xf3 d:/11.2 2022.02/bin/../lib/gcc/arm-none-eabi/11.2.1/thumb/v7e-m+fp/hard\libc.a(lib_a-wcrtomb.o)
                                0x809 (size before relaxing)
 .debug_str     0x00004bd3       0x76 d:/11.2 2022.02/bin/../lib/gcc/arm-none-eabi/11.2.1/thumb/v7e-m+fp/hard\libc.a(lib_a-wcsrtombs.o)
                                0x612 (size before relaxing)
 .debug_str     0x00004c49      0x192 d:/11.2 2022.02/bin/../lib/gcc/arm-none-eabi/11.2.1/thumb/v7e-m+fp/hard\libc.a(lib_a-dtoa.o)
                                0x9b5 (size before relaxing)
 .debug_str     0x00004ddb      0x1a3 d:/11.2 2022.02/bin/../lib/gcc/arm-none-eabi/11.2.1/thumb/v7e-m+fp/hard\libc.a(lib_a-freer.o)
                                0x747 (size before relaxing)
 .debug_str     0x00004f7e      0x11b d:/11.2 2022.02/bin/../lib/gcc/arm-none-eabi/11.2.1/thumb/v7e-m+fp/hard\libc.a(lib_a-localeconv.o)
                                0x82e (size before relaxing)
 .debug_str     0x00005099      0x25b d:/11.2 2022.02/bin/../lib/gcc/arm-none-eabi/11.2.1/thumb/v7e-m+fp/hard\libc.a(lib_a-locale.o)
                                0xa1d (size before relaxing)
 .debug_str     0x000052f4       0xe5 d:/11.2 2022.02/bin/../lib/gcc/arm-none-eabi/11.2.1/thumb/v7e-m+fp/hard\libc.a(lib_a-mallocr.o)
                                0x7fd (size before relaxing)
 .debug_str     0x000053d9      0x157 d:/11.2 2022.02/bin/../lib/gcc/arm-none-eabi/11.2.1/thumb/v7e-m+fp/hard\libc.a(lib_a-mbtowc_r.o)
                                0x92b (size before relaxing)
 .debug_str     0x00005530        0x9 d:/11.2 2022.02/bin/../lib/gcc/arm-none-eabi/11.2.1/thumb/v7e-m+fp/hard\libc.a(lib_a-memchr.o)
                                 0xa2 (size before relaxing)
 .debug_str     0x00005539       0x10 d:/11.2 2022.02/bin/../lib/gcc/arm-none-eabi/11.2.1/thumb/v7e-m+fp/hard\libc.a(lib_a-memcpy.o)
                                 0xa9 (size before relaxing)
 .debug_str     0x00005549       0x73 d:/11.2 2022.02/bin/../lib/gcc/arm-none-eabi/11.2.1/thumb/v7e-m+fp/hard\libc.a(lib_a-mlock.o)
                                0x5fb (size before relaxing)
 .debug_str     0x000055bc       0xc5 d:/11.2 2022.02/bin/../lib/gcc/arm-none-eabi/11.2.1/thumb/v7e-m+fp/hard\libc.a(lib_a-mprec.o)
                                0x8f3 (size before relaxing)
 .debug_str     0x00005681       0x64 d:/11.2 2022.02/bin/../lib/gcc/arm-none-eabi/11.2.1/thumb/v7e-m+fp/hard\libc.a(lib_a-sbrkr.o)
                                0x5e5 (size before relaxing)
 .debug_str     0x000056e5      0x117 d:/11.2 2022.02/bin/../lib/gcc/arm-none-eabi/11.2.1/thumb/v7e-m+fp/hard\libc.a(lib_a-s_frexp.o)
                                0x274 (size before relaxing)
 .debug_str     0x000057fc       0x7e d:/11.2 2022.02/bin/../lib/gcc/arm-none-eabi/11.2.1/thumb/v7e-m+fp/hard\libc.a(lib_a-strncpy.o)
                                0x23d (size before relaxing)
 .debug_str     0x0000587a       0x30 d:/11.2 2022.02/bin/../lib/gcc/arm-none-eabi/11.2.1/thumb/v7e-m+fp/hard\libc.a(lib_a-svfiprintf.o)
                                0x9d4 (size before relaxing)
 .debug_str     0x000058aa       0x82 d:/11.2 2022.02/bin/../lib/gcc/arm-none-eabi/11.2.1/thumb/v7e-m+fp/hard\libc.a(lib_a-wcsnrtombs.o)
                                0x829 (size before relaxing)
 .debug_str     0x0000592c       0x7a d:/11.2 2022.02/bin/../lib/gcc/arm-none-eabi/11.2.1/thumb/v7e-m+fp/hard\libc.a(lib_a-wctomb_r.o)
                                0x84e (size before relaxing)
 .debug_str     0x000059a6       0x7a d:/11.2 2022.02/bin/../lib/gcc/arm-none-eabi/11.2.1/thumb/v7e-m+fp/hard\libc.a(lib_a-assert.o)
                                0x616 (size before relaxing)
 .debug_str     0x00005a20       0x17 d:/11.2 2022.02/bin/../lib/gcc/arm-none-eabi/11.2.1/thumb/v7e-m+fp/hard\libc.a(lib_a-callocr.o)
                                0x62f (size before relaxing)
 .debug_str     0x00005a37       0xe1 d:/11.2 2022.02/bin/../lib/gcc/arm-none-eabi/11.2.1/thumb/v7e-m+fp/hard\libc.a(lib_a-ctype_.o)
                                0x7bd (size before relaxing)
 .debug_str     0x00005b18       0xe0 d:/11.2 2022.02/bin/../lib/gcc/arm-none-eabi/11.2.1/thumb/v7e-m+fp/hard\libc.a(lib_a-errno.o)
                                0x5d6 (size before relaxing)
 .debug_str     0x00005bf8       0x75 d:/11.2 2022.02/bin/../lib/gcc/arm-none-eabi/11.2.1/thumb/v7e-m+fp/hard\libc.a(lib_a-fiprintf.o)
                                0x61e (size before relaxing)
 .debug_str     0x00005c6d       0x6e d:/11.2 2022.02/bin/../lib/gcc/arm-none-eabi/11.2.1/thumb/v7e-m+fp/hard\libc.a(lib_a-memmove.o)
                                0x246 (size before relaxing)
 .debug_str     0x00005cdb       0x4e d:/11.2 2022.02/bin/../lib/gcc/arm-none-eabi/11.2.1/thumb/v7e-m+fp/hard\libc.a(lib_a-reallocr.o)
                                0x6cf (size before relaxing)
 .debug_str     0x00005d29       0x85 d:/11.2 2022.02/bin/../lib/gcc/arm-none-eabi/11.2.1/thumb/v7e-m+fp/hard\libc.a(lib_a-reent.o)
                                0x60d (size before relaxing)
 .debug_str     0x00005dae       0x6f d:/11.2 2022.02/bin/../lib/gcc/arm-none-eabi/11.2.1/thumb/v7e-m+fp/hard\libc.a(lib_a-vfiprintf.o)
                                0xa20 (size before relaxing)
 .debug_str     0x00005e1d       0x67 d:/11.2 2022.02/bin/../lib/gcc/arm-none-eabi/11.2.1/thumb/v7e-m+fp/hard\libc.a(lib_a-wsetup.o)
                                0x60d (size before relaxing)
 .debug_str     0x00005e84       0x66 d:/11.2 2022.02/bin/../lib/gcc/arm-none-eabi/11.2.1/thumb/v7e-m+fp/hard\libc.a(lib_a-abort.o)
                                0x216 (size before relaxing)
 .debug_str     0x00005eea       0x8a d:/11.2 2022.02/bin/../lib/gcc/arm-none-eabi/11.2.1/thumb/v7e-m+fp/hard\libc.a(lib_a-fflush.o)
                                0x64e (size before relaxing)
 .debug_str     0x00005f74      0x1a2 d:/11.2 2022.02/bin/../lib/gcc/arm-none-eabi/11.2.1/thumb/v7e-m+fp/hard\libc.a(lib_a-findfp.o)
                                0x775 (size before relaxing)
 .debug_str     0x00006116       0x77 d:/11.2 2022.02/bin/../lib/gcc/arm-none-eabi/11.2.1/thumb/v7e-m+fp/hard\libc.a(lib_a-fputwc.o)
                                0x65d (size before relaxing)
 .debug_str     0x0000618d       0x6a d:/11.2 2022.02/bin/../lib/gcc/arm-none-eabi/11.2.1/thumb/v7e-m+fp/hard\libc.a(lib_a-fvwrite.o)
                                0x680 (size before relaxing)
 .debug_str     0x000061f7       0x68 d:/11.2 2022.02/bin/../lib/gcc/arm-none-eabi/11.2.1/thumb/v7e-m+fp/hard\libc.a(lib_a-fwalk.o)
                                0x5f3 (size before relaxing)
 .debug_str     0x0000625f      0x188 d:/11.2 2022.02/bin/../lib/gcc/arm-none-eabi/11.2.1/thumb/v7e-m+fp/hard\libc.a(lib_a-makebuf.o)
                                0x77a (size before relaxing)
 .debug_str     0x000063e7      0x149 d:/11.2 2022.02/bin/../lib/gcc/arm-none-eabi/11.2.1/thumb/v7e-m+fp/hard\libc.a(lib_a-signal.o)
                                0x664 (size before relaxing)
 .debug_str     0x00006530       0x71 d:/11.2 2022.02/bin/../lib/gcc/arm-none-eabi/11.2.1/thumb/v7e-m+fp/hard\libc.a(lib_a-signalr.o)
                                0x5f8 (size before relaxing)
 .debug_str     0x000065a1       0x97 d:/11.2 2022.02/bin/../lib/gcc/arm-none-eabi/11.2.1/thumb/v7e-m+fp/hard\libc.a(lib_a-stdio.o)
                                0x649 (size before relaxing)
 .debug_str     0x00006638       0x60 d:/11.2 2022.02/bin/../lib/gcc/arm-none-eabi/11.2.1/thumb/v7e-m+fp/hard\libc.a(lib_a-wbuf.o)
                                0x612 (size before relaxing)
 .debug_str     0x00006698       0x5a d:/11.2 2022.02/bin/../lib/gcc/arm-none-eabi/11.2.1/thumb/v7e-m+fp/hard\libc.a(lib_a-writer.o)
                                0x5e2 (size before relaxing)
 .debug_str     0x000066f2       0x5a d:/11.2 2022.02/bin/../lib/gcc/arm-none-eabi/11.2.1/thumb/v7e-m+fp/hard\libc.a(lib_a-closer.o)
                                0x5d2 (size before relaxing)
 .debug_str     0x0000674c       0x61 d:/11.2 2022.02/bin/../lib/gcc/arm-none-eabi/11.2.1/thumb/v7e-m+fp/hard\libc.a(lib_a-fclose.o)
                                0x63b (size before relaxing)
 .debug_str     0x000067ad       0x67 d:/11.2 2022.02/bin/../lib/gcc/arm-none-eabi/11.2.1/thumb/v7e-m+fp/hard\libc.a(lib_a-fstatr.o)
                                0x724 (size before relaxing)
 .debug_str     0x00006814       0x63 d:/11.2 2022.02/bin/../lib/gcc/arm-none-eabi/11.2.1/thumb/v7e-m+fp/hard\libc.a(lib_a-isattyr.o)
                                0x5dc (size before relaxing)
 .debug_str     0x00006877       0x61 d:/11.2 2022.02/bin/../lib/gcc/arm-none-eabi/11.2.1/thumb/v7e-m+fp/hard\libc.a(lib_a-lseekr.o)
                                0x5e0 (size before relaxing)
 .debug_str     0x000068d8       0x59 d:/11.2 2022.02/bin/../lib/gcc/arm-none-eabi/11.2.1/thumb/v7e-m+fp/hard\libc.a(lib_a-readr.o)
                                0x5e0 (size before relaxing)
 .debug_str     0x00006931      0x161 d:/11.2 2022.02/bin/../lib/gcc/arm-none-eabi/11.2.1/thumb/v7e-m+fp/hard\libnosys.a(close.o)
                                0x203 (size before relaxing)
 .debug_str     0x00006a92       0x59 d:/11.2 2022.02/bin/../lib/gcc/arm-none-eabi/11.2.1/thumb/v7e-m+fp/hard\libnosys.a(fstat.o)
                                0x34f (size before relaxing)
 .debug_str     0x00006aeb       0x5a d:/11.2 2022.02/bin/../lib/gcc/arm-none-eabi/11.2.1/thumb/v7e-m+fp/hard\libnosys.a(getpid.o)
                                0x1fe (size before relaxing)
 .debug_str     0x00006b45       0x5a d:/11.2 2022.02/bin/../lib/gcc/arm-none-eabi/11.2.1/thumb/v7e-m+fp/hard\libnosys.a(isatty.o)
                                0x203 (size before relaxing)
 .debug_str     0x00006b9f       0x58 d:/11.2 2022.02/bin/../lib/gcc/arm-none-eabi/11.2.1/thumb/v7e-m+fp/hard\libnosys.a(kill.o)
                                0x1fa (size before relaxing)
 .debug_str     0x00006bf7       0x59 d:/11.2 2022.02/bin/../lib/gcc/arm-none-eabi/11.2.1/thumb/v7e-m+fp/hard\libnosys.a(lseek.o)
                                0x201 (size before relaxing)
 .debug_str     0x00006c50       0x58 d:/11.2 2022.02/bin/../lib/gcc/arm-none-eabi/11.2.1/thumb/v7e-m+fp/hard\libnosys.a(read.o)
                                0x1ff (size before relaxing)
 .debug_str     0x00006ca8       0x66 d:/11.2 2022.02/bin/../lib/gcc/arm-none-eabi/11.2.1/thumb/v7e-m+fp/hard\libnosys.a(sbrk.o)
                                0x180 (size before relaxing)
 .debug_str     0x00006d0e       0x59 d:/11.2 2022.02/bin/../lib/gcc/arm-none-eabi/11.2.1/thumb/v7e-m+fp/hard\libnosys.a(write.o)
                                0x201 (size before relaxing)
 .debug_str     0x00006d67       0x59 d:/11.2 2022.02/bin/../lib/gcc/arm-none-eabi/11.2.1/thumb/v7e-m+fp/hard\libnosys.a(_exit.o)
                                0x160 (size before relaxing)
 .debug_str     0x00006dc0       0x87 d:/11.2 2022.02/bin/../lib/gcc/arm-none-eabi/11.2.1/thumb/v7e-m+fp/hard\libgcc.a(_arm_addsubdf3.o)
                                 0x93 (size before relaxing)
 .debug_str     0x00006e47       0x93 d:/11.2 2022.02/bin/../lib/gcc/arm-none-eabi/11.2.1/thumb/v7e-m+fp/hard\libgcc.a(_arm_muldivdf3.o)
 .debug_str     0x00006e47       0x93 d:/11.2 2022.02/bin/../lib/gcc/arm-none-eabi/11.2.1/thumb/v7e-m+fp/hard\libgcc.a(_arm_cmpdf2.o)
 .debug_str     0x00006e47       0x93 d:/11.2 2022.02/bin/../lib/gcc/arm-none-eabi/11.2.1/thumb/v7e-m+fp/hard\libgcc.a(_arm_unorddf2.o)
 .debug_str     0x00006e47       0x93 d:/11.2 2022.02/bin/../lib/gcc/arm-none-eabi/11.2.1/thumb/v7e-m+fp/hard\libgcc.a(_arm_fixdfsi.o)
 .debug_str     0x00006e47        0x8 d:/11.2 2022.02/bin/../lib/gcc/arm-none-eabi/11.2.1/thumb/v7e-m+fp/hard\libgcc.a(_aeabi_uldivmod.o)
                                 0x8e (size before relaxing)
 .debug_str     0x00006e4f      0x595 d:/11.2 2022.02/bin/../lib/gcc/arm-none-eabi/11.2.1/thumb/v7e-m+fp/hard\libgcc.a(_udivmoddi4.o)
                                0x6a4 (size before relaxing)
 .debug_str     0x000073e4        0xc d:/11.2 2022.02/bin/../lib/gcc/arm-none-eabi/11.2.1/thumb/v7e-m+fp/hard\libgcc.a(_dvmd_tls.o)
                                 0x92 (size before relaxing)

.debug_frame    0x00000000     0x39c0
 .debug_frame   0x00000000       0x68 build/main.o
 .debug_frame   0x00000068       0x34 build/gpio.o
 .debug_frame   0x0000009c       0xd8 build/stm32f4xx_it.o
 .debug_frame   0x00000174       0x28 build/stm32f4xx_hal_msp.o
 .debug_frame   0x0000019c      0xb0c build/stm32f4xx_hal_tim.o
 .debug_frame   0x00000ca8      0x40c build/stm32f4xx_hal_tim_ex.o
 .debug_frame   0x000010b4      0x16c build/stm32f4xx_hal_rcc.o
 .debug_frame   0x00001220       0xd8 build/stm32f4xx_hal_gpio.o
 .debug_frame   0x000012f8      0x188 build/stm32f4xx_hal_dma.o
 .debug_frame   0x00001480      0x148 build/stm32f4xx_hal_cortex.o
 .debug_frame   0x000015c8      0x1ec build/stm32f4xx_hal.o
 .debug_frame   0x000017b4       0x30 build/system_stm32f4xx.o
 .debug_frame   0x000017e4       0x30 build/dma.o
 .debug_frame   0x00001814      0x134 build/tim.o
 .debug_frame   0x00001948       0xcc build/usart.o
 .debug_frame   0x00001a14      0x5c8 build/stm32f4xx_hal_uart.o
 .debug_frame   0x00001fdc      0x158 build/pid.o
 .debug_frame   0x00002134       0x2c d:/11.2 2022.02/bin/../lib/gcc/arm-none-eabi/11.2.1/thumb/v7e-m+fp/hard\libc.a(lib_a-init.o)
 .debug_frame   0x00002160       0x2c d:/11.2 2022.02/bin/../lib/gcc/arm-none-eabi/11.2.1/thumb/v7e-m+fp/hard\libc.a(lib_a-memset.o)
 .debug_frame   0x0000218c       0x54 d:/11.2 2022.02/bin/../lib/gcc/arm-none-eabi/11.2.1/thumb/v7e-m+fp/hard\libc.a(lib_a-vsprintf.o)
 .debug_frame   0x000021e0       0x68 d:/11.2 2022.02/bin/../lib/gcc/arm-none-eabi/11.2.1/thumb/v7e-m+fp/hard\libc.a(lib_a-svfprintf.o)
 .debug_frame   0x00002248       0x60 d:/11.2 2022.02/bin/../lib/gcc/arm-none-eabi/11.2.1/thumb/v7e-m+fp/hard\libc.a(lib_a-wcrtomb.o)
 .debug_frame   0x000022a8       0x50 d:/11.2 2022.02/bin/../lib/gcc/arm-none-eabi/11.2.1/thumb/v7e-m+fp/hard\libc.a(lib_a-wcsrtombs.o)
 .debug_frame   0x000022f8       0xdc d:/11.2 2022.02/bin/../lib/gcc/arm-none-eabi/11.2.1/thumb/v7e-m+fp/hard\libc.a(lib_a-dtoa.o)
 .debug_frame   0x000023d4       0x8c d:/11.2 2022.02/bin/../lib/gcc/arm-none-eabi/11.2.1/thumb/v7e-m+fp/hard\libc.a(lib_a-freer.o)
 .debug_frame   0x00002460       0x40 d:/11.2 2022.02/bin/../lib/gcc/arm-none-eabi/11.2.1/thumb/v7e-m+fp/hard\libc.a(lib_a-localeconv.o)
 .debug_frame   0x000024a0      0x130 d:/11.2 2022.02/bin/../lib/gcc/arm-none-eabi/11.2.1/thumb/v7e-m+fp/hard\libc.a(lib_a-locale.o)
 .debug_frame   0x000025d0       0x4c d:/11.2 2022.02/bin/../lib/gcc/arm-none-eabi/11.2.1/thumb/v7e-m+fp/hard\libc.a(lib_a-mallocr.o)
 .debug_frame   0x0000261c      0x134 d:/11.2 2022.02/bin/../lib/gcc/arm-none-eabi/11.2.1/thumb/v7e-m+fp/hard\libc.a(lib_a-mbtowc_r.o)
 .debug_frame   0x00002750       0x30 d:/11.2 2022.02/bin/../lib/gcc/arm-none-eabi/11.2.1/thumb/v7e-m+fp/hard\libc.a(lib_a-mlock.o)
 .debug_frame   0x00002780      0x278 d:/11.2 2022.02/bin/../lib/gcc/arm-none-eabi/11.2.1/thumb/v7e-m+fp/hard\libc.a(lib_a-mprec.o)
 .debug_frame   0x000029f8       0x2c d:/11.2 2022.02/bin/../lib/gcc/arm-none-eabi/11.2.1/thumb/v7e-m+fp/hard\libc.a(lib_a-sbrkr.o)
 .debug_frame   0x00002a24       0x2c d:/11.2 2022.02/bin/../lib/gcc/arm-none-eabi/11.2.1/thumb/v7e-m+fp/hard\libc.a(lib_a-s_frexp.o)
 .debug_frame   0x00002a50       0x2c d:/11.2 2022.02/bin/../lib/gcc/arm-none-eabi/11.2.1/thumb/v7e-m+fp/hard\libc.a(lib_a-strncpy.o)
 .debug_frame   0x00002a7c       0x88 d:/11.2 2022.02/bin/../lib/gcc/arm-none-eabi/11.2.1/thumb/v7e-m+fp/hard\libc.a(lib_a-svfiprintf.o)
 .debug_frame   0x00002b04       0x88 d:/11.2 2022.02/bin/../lib/gcc/arm-none-eabi/11.2.1/thumb/v7e-m+fp/hard\libc.a(lib_a-wcsnrtombs.o)
 .debug_frame   0x00002b8c       0x94 d:/11.2 2022.02/bin/../lib/gcc/arm-none-eabi/11.2.1/thumb/v7e-m+fp/hard\libc.a(lib_a-wctomb_r.o)
 .debug_frame   0x00002c20       0x40 d:/11.2 2022.02/bin/../lib/gcc/arm-none-eabi/11.2.1/thumb/v7e-m+fp/hard\libc.a(lib_a-assert.o)
 .debug_frame   0x00002c60       0x2c d:/11.2 2022.02/bin/../lib/gcc/arm-none-eabi/11.2.1/thumb/v7e-m+fp/hard\libc.a(lib_a-callocr.o)
 .debug_frame   0x00002c8c       0x20 d:/11.2 2022.02/bin/../lib/gcc/arm-none-eabi/11.2.1/thumb/v7e-m+fp/hard\libc.a(lib_a-ctype_.o)
 .debug_frame   0x00002cac       0x20 d:/11.2 2022.02/bin/../lib/gcc/arm-none-eabi/11.2.1/thumb/v7e-m+fp/hard\libc.a(lib_a-errno.o)
 .debug_frame   0x00002ccc       0x70 d:/11.2 2022.02/bin/../lib/gcc/arm-none-eabi/11.2.1/thumb/v7e-m+fp/hard\libc.a(lib_a-fiprintf.o)
 .debug_frame   0x00002d3c       0x40 d:/11.2 2022.02/bin/../lib/gcc/arm-none-eabi/11.2.1/thumb/v7e-m+fp/hard\libc.a(lib_a-memmove.o)
 .debug_frame   0x00002d7c       0x48 d:/11.2 2022.02/bin/../lib/gcc/arm-none-eabi/11.2.1/thumb/v7e-m+fp/hard\libc.a(lib_a-reallocr.o)
 .debug_frame   0x00002dc4       0x64 d:/11.2 2022.02/bin/../lib/gcc/arm-none-eabi/11.2.1/thumb/v7e-m+fp/hard\libc.a(lib_a-reent.o)
 .debug_frame   0x00002e28       0xdc d:/11.2 2022.02/bin/../lib/gcc/arm-none-eabi/11.2.1/thumb/v7e-m+fp/hard\libc.a(lib_a-vfiprintf.o)
 .debug_frame   0x00002f04       0x2c d:/11.2 2022.02/bin/../lib/gcc/arm-none-eabi/11.2.1/thumb/v7e-m+fp/hard\libc.a(lib_a-wsetup.o)
 .debug_frame   0x00002f30       0x28 d:/11.2 2022.02/bin/../lib/gcc/arm-none-eabi/11.2.1/thumb/v7e-m+fp/hard\libc.a(lib_a-abort.o)
 .debug_frame   0x00002f58       0x80 d:/11.2 2022.02/bin/../lib/gcc/arm-none-eabi/11.2.1/thumb/v7e-m+fp/hard\libc.a(lib_a-fflush.o)
 .debug_frame   0x00002fd8      0x124 d:/11.2 2022.02/bin/../lib/gcc/arm-none-eabi/11.2.1/thumb/v7e-m+fp/hard\libc.a(lib_a-findfp.o)
 .debug_frame   0x000030fc       0x8c d:/11.2 2022.02/bin/../lib/gcc/arm-none-eabi/11.2.1/thumb/v7e-m+fp/hard\libc.a(lib_a-fputwc.o)
 .debug_frame   0x00003188       0x64 d:/11.2 2022.02/bin/../lib/gcc/arm-none-eabi/11.2.1/thumb/v7e-m+fp/hard\libc.a(lib_a-fvwrite.o)
 .debug_frame   0x000031ec       0x54 d:/11.2 2022.02/bin/../lib/gcc/arm-none-eabi/11.2.1/thumb/v7e-m+fp/hard\libc.a(lib_a-fwalk.o)
 .debug_frame   0x00003240       0x70 d:/11.2 2022.02/bin/../lib/gcc/arm-none-eabi/11.2.1/thumb/v7e-m+fp/hard\libc.a(lib_a-makebuf.o)
 .debug_frame   0x000032b0      0x114 d:/11.2 2022.02/bin/../lib/gcc/arm-none-eabi/11.2.1/thumb/v7e-m+fp/hard\libc.a(lib_a-signal.o)
 .debug_frame   0x000033c4       0x3c d:/11.2 2022.02/bin/../lib/gcc/arm-none-eabi/11.2.1/thumb/v7e-m+fp/hard\libc.a(lib_a-signalr.o)
 .debug_frame   0x00003400       0x8c d:/11.2 2022.02/bin/../lib/gcc/arm-none-eabi/11.2.1/thumb/v7e-m+fp/hard\libc.a(lib_a-stdio.o)
 .debug_frame   0x0000348c       0x4c d:/11.2 2022.02/bin/../lib/gcc/arm-none-eabi/11.2.1/thumb/v7e-m+fp/hard\libc.a(lib_a-wbuf.o)
 .debug_frame   0x000034d8       0x2c d:/11.2 2022.02/bin/../lib/gcc/arm-none-eabi/11.2.1/thumb/v7e-m+fp/hard\libc.a(lib_a-writer.o)
 .debug_frame   0x00003504       0x2c d:/11.2 2022.02/bin/../lib/gcc/arm-none-eabi/11.2.1/thumb/v7e-m+fp/hard\libc.a(lib_a-closer.o)
 .debug_frame   0x00003530       0x3c d:/11.2 2022.02/bin/../lib/gcc/arm-none-eabi/11.2.1/thumb/v7e-m+fp/hard\libc.a(lib_a-fclose.o)
 .debug_frame   0x0000356c       0x2c d:/11.2 2022.02/bin/../lib/gcc/arm-none-eabi/11.2.1/thumb/v7e-m+fp/hard\libc.a(lib_a-fstatr.o)
 .debug_frame   0x00003598       0x2c d:/11.2 2022.02/bin/../lib/gcc/arm-none-eabi/11.2.1/thumb/v7e-m+fp/hard\libc.a(lib_a-isattyr.o)
 .debug_frame   0x000035c4       0x2c d:/11.2 2022.02/bin/../lib/gcc/arm-none-eabi/11.2.1/thumb/v7e-m+fp/hard\libc.a(lib_a-lseekr.o)
 .debug_frame   0x000035f0       0x2c d:/11.2 2022.02/bin/../lib/gcc/arm-none-eabi/11.2.1/thumb/v7e-m+fp/hard\libc.a(lib_a-readr.o)
 .debug_frame   0x0000361c       0x20 d:/11.2 2022.02/bin/../lib/gcc/arm-none-eabi/11.2.1/thumb/v7e-m+fp/hard\libnosys.a(close.o)
 .debug_frame   0x0000363c       0x20 d:/11.2 2022.02/bin/../lib/gcc/arm-none-eabi/11.2.1/thumb/v7e-m+fp/hard\libnosys.a(fstat.o)
 .debug_frame   0x0000365c       0x20 d:/11.2 2022.02/bin/../lib/gcc/arm-none-eabi/11.2.1/thumb/v7e-m+fp/hard\libnosys.a(getpid.o)
 .debug_frame   0x0000367c       0x20 d:/11.2 2022.02/bin/../lib/gcc/arm-none-eabi/11.2.1/thumb/v7e-m+fp/hard\libnosys.a(isatty.o)
 .debug_frame   0x0000369c       0x20 d:/11.2 2022.02/bin/../lib/gcc/arm-none-eabi/11.2.1/thumb/v7e-m+fp/hard\libnosys.a(kill.o)
 .debug_frame   0x000036bc       0x20 d:/11.2 2022.02/bin/../lib/gcc/arm-none-eabi/11.2.1/thumb/v7e-m+fp/hard\libnosys.a(lseek.o)
 .debug_frame   0x000036dc       0x20 d:/11.2 2022.02/bin/../lib/gcc/arm-none-eabi/11.2.1/thumb/v7e-m+fp/hard\libnosys.a(read.o)
 .debug_frame   0x000036fc       0x20 d:/11.2 2022.02/bin/../lib/gcc/arm-none-eabi/11.2.1/thumb/v7e-m+fp/hard\libnosys.a(sbrk.o)
 .debug_frame   0x0000371c       0x20 d:/11.2 2022.02/bin/../lib/gcc/arm-none-eabi/11.2.1/thumb/v7e-m+fp/hard\libnosys.a(write.o)
 .debug_frame   0x0000373c       0x20 d:/11.2 2022.02/bin/../lib/gcc/arm-none-eabi/11.2.1/thumb/v7e-m+fp/hard\libnosys.a(_exit.o)
 .debug_frame   0x0000375c       0xac d:/11.2 2022.02/bin/../lib/gcc/arm-none-eabi/11.2.1/thumb/v7e-m+fp/hard\libgcc.a(_arm_addsubdf3.o)
 .debug_frame   0x00003808       0x50 d:/11.2 2022.02/bin/../lib/gcc/arm-none-eabi/11.2.1/thumb/v7e-m+fp/hard\libgcc.a(_arm_muldivdf3.o)
 .debug_frame   0x00003858       0xc4 d:/11.2 2022.02/bin/../lib/gcc/arm-none-eabi/11.2.1/thumb/v7e-m+fp/hard\libgcc.a(_arm_cmpdf2.o)
 .debug_frame   0x0000391c       0x20 d:/11.2 2022.02/bin/../lib/gcc/arm-none-eabi/11.2.1/thumb/v7e-m+fp/hard\libgcc.a(_arm_unorddf2.o)
 .debug_frame   0x0000393c       0x24 d:/11.2 2022.02/bin/../lib/gcc/arm-none-eabi/11.2.1/thumb/v7e-m+fp/hard\libgcc.a(_arm_fixdfsi.o)
 .debug_frame   0x00003960       0x2c d:/11.2 2022.02/bin/../lib/gcc/arm-none-eabi/11.2.1/thumb/v7e-m+fp/hard\libgcc.a(_aeabi_uldivmod.o)
 .debug_frame   0x0000398c       0x34 d:/11.2 2022.02/bin/../lib/gcc/arm-none-eabi/11.2.1/thumb/v7e-m+fp/hard\libgcc.a(_udivmoddi4.o)

.debug_loclists
                0x00000000    0x11c7e
 .debug_loclists
                0x00000000       0x7a d:/11.2 2022.02/bin/../lib/gcc/arm-none-eabi/11.2.1/thumb/v7e-m+fp/hard\libc.a(lib_a-init.o)
 .debug_loclists
                0x0000007a      0x1a5 d:/11.2 2022.02/bin/../lib/gcc/arm-none-eabi/11.2.1/thumb/v7e-m+fp/hard\libc.a(lib_a-memset.o)
 .debug_loclists
                0x0000021f      0x119 d:/11.2 2022.02/bin/../lib/gcc/arm-none-eabi/11.2.1/thumb/v7e-m+fp/hard\libc.a(lib_a-vsprintf.o)
 .debug_loclists
                0x00000338     0x3314 d:/11.2 2022.02/bin/../lib/gcc/arm-none-eabi/11.2.1/thumb/v7e-m+fp/hard\libc.a(lib_a-svfprintf.o)
 .debug_loclists
                0x0000364c      0x18b d:/11.2 2022.02/bin/../lib/gcc/arm-none-eabi/11.2.1/thumb/v7e-m+fp/hard\libc.a(lib_a-wcrtomb.o)
 .debug_loclists
                0x000037d7       0xea d:/11.2 2022.02/bin/../lib/gcc/arm-none-eabi/11.2.1/thumb/v7e-m+fp/hard\libc.a(lib_a-wcsrtombs.o)
 .debug_loclists
                0x000038c1     0x2423 d:/11.2 2022.02/bin/../lib/gcc/arm-none-eabi/11.2.1/thumb/v7e-m+fp/hard\libc.a(lib_a-dtoa.o)
 .debug_loclists
                0x00005ce4      0x489 d:/11.2 2022.02/bin/../lib/gcc/arm-none-eabi/11.2.1/thumb/v7e-m+fp/hard\libc.a(lib_a-freer.o)
 .debug_loclists
                0x0000616d       0x51 d:/11.2 2022.02/bin/../lib/gcc/arm-none-eabi/11.2.1/thumb/v7e-m+fp/hard\libc.a(lib_a-localeconv.o)
 .debug_loclists
                0x000061be      0x987 d:/11.2 2022.02/bin/../lib/gcc/arm-none-eabi/11.2.1/thumb/v7e-m+fp/hard\libc.a(lib_a-locale.o)
 .debug_loclists
                0x00006b45      0xa6b d:/11.2 2022.02/bin/../lib/gcc/arm-none-eabi/11.2.1/thumb/v7e-m+fp/hard\libc.a(lib_a-mallocr.o)
 .debug_loclists
                0x000075b0      0xa16 d:/11.2 2022.02/bin/../lib/gcc/arm-none-eabi/11.2.1/thumb/v7e-m+fp/hard\libc.a(lib_a-mbtowc_r.o)
 .debug_loclists
                0x00007fc6     0x1906 d:/11.2 2022.02/bin/../lib/gcc/arm-none-eabi/11.2.1/thumb/v7e-m+fp/hard\libc.a(lib_a-mprec.o)
 .debug_loclists
                0x000098cc       0x4c d:/11.2 2022.02/bin/../lib/gcc/arm-none-eabi/11.2.1/thumb/v7e-m+fp/hard\libc.a(lib_a-sbrkr.o)
 .debug_loclists
                0x00009918       0xb3 d:/11.2 2022.02/bin/../lib/gcc/arm-none-eabi/11.2.1/thumb/v7e-m+fp/hard\libc.a(lib_a-s_frexp.o)
 .debug_loclists
                0x000099cb      0x107 d:/11.2 2022.02/bin/../lib/gcc/arm-none-eabi/11.2.1/thumb/v7e-m+fp/hard\libc.a(lib_a-strncpy.o)
 .debug_loclists
                0x00009ad2     0x163c d:/11.2 2022.02/bin/../lib/gcc/arm-none-eabi/11.2.1/thumb/v7e-m+fp/hard\libc.a(lib_a-svfiprintf.o)
 .debug_loclists
                0x0000b10e      0x4a9 d:/11.2 2022.02/bin/../lib/gcc/arm-none-eabi/11.2.1/thumb/v7e-m+fp/hard\libc.a(lib_a-wcsnrtombs.o)
 .debug_loclists
                0x0000b5b7      0x5db d:/11.2 2022.02/bin/../lib/gcc/arm-none-eabi/11.2.1/thumb/v7e-m+fp/hard\libc.a(lib_a-wctomb_r.o)
 .debug_loclists
                0x0000bb92       0xf3 d:/11.2 2022.02/bin/../lib/gcc/arm-none-eabi/11.2.1/thumb/v7e-m+fp/hard\libc.a(lib_a-assert.o)
 .debug_loclists
                0x0000bc85      0x1eb d:/11.2 2022.02/bin/../lib/gcc/arm-none-eabi/11.2.1/thumb/v7e-m+fp/hard\libc.a(lib_a-callocr.o)
 .debug_loclists
                0x0000be70       0x18 d:/11.2 2022.02/bin/../lib/gcc/arm-none-eabi/11.2.1/thumb/v7e-m+fp/hard\libc.a(lib_a-ctype_.o)
 .debug_loclists
                0x0000be88       0x6e d:/11.2 2022.02/bin/../lib/gcc/arm-none-eabi/11.2.1/thumb/v7e-m+fp/hard\libc.a(lib_a-fiprintf.o)
 .debug_loclists
                0x0000bef6      0x224 d:/11.2 2022.02/bin/../lib/gcc/arm-none-eabi/11.2.1/thumb/v7e-m+fp/hard\libc.a(lib_a-memmove.o)
 .debug_loclists
                0x0000c11a     0x10df d:/11.2 2022.02/bin/../lib/gcc/arm-none-eabi/11.2.1/thumb/v7e-m+fp/hard\libc.a(lib_a-reallocr.o)
 .debug_loclists
                0x0000d1f9      0x15f d:/11.2 2022.02/bin/../lib/gcc/arm-none-eabi/11.2.1/thumb/v7e-m+fp/hard\libc.a(lib_a-reent.o)
 .debug_loclists
                0x0000d358     0x1f70 d:/11.2 2022.02/bin/../lib/gcc/arm-none-eabi/11.2.1/thumb/v7e-m+fp/hard\libc.a(lib_a-vfiprintf.o)
 .debug_loclists
                0x0000f2c8       0x99 d:/11.2 2022.02/bin/../lib/gcc/arm-none-eabi/11.2.1/thumb/v7e-m+fp/hard\libc.a(lib_a-wsetup.o)
 .debug_loclists
                0x0000f361      0x295 d:/11.2 2022.02/bin/../lib/gcc/arm-none-eabi/11.2.1/thumb/v7e-m+fp/hard\libc.a(lib_a-fflush.o)
 .debug_loclists
                0x0000f5f6      0x241 d:/11.2 2022.02/bin/../lib/gcc/arm-none-eabi/11.2.1/thumb/v7e-m+fp/hard\libc.a(lib_a-findfp.o)
 .debug_loclists
                0x0000f837      0x22b d:/11.2 2022.02/bin/../lib/gcc/arm-none-eabi/11.2.1/thumb/v7e-m+fp/hard\libc.a(lib_a-fputwc.o)
 .debug_loclists
                0x0000fa62      0x50e d:/11.2 2022.02/bin/../lib/gcc/arm-none-eabi/11.2.1/thumb/v7e-m+fp/hard\libc.a(lib_a-fvwrite.o)
 .debug_loclists
                0x0000ff70      0x10f d:/11.2 2022.02/bin/../lib/gcc/arm-none-eabi/11.2.1/thumb/v7e-m+fp/hard\libc.a(lib_a-fwalk.o)
 .debug_loclists
                0x0001007f      0x264 d:/11.2 2022.02/bin/../lib/gcc/arm-none-eabi/11.2.1/thumb/v7e-m+fp/hard\libc.a(lib_a-makebuf.o)
 .debug_loclists
                0x000102e3      0x569 d:/11.2 2022.02/bin/../lib/gcc/arm-none-eabi/11.2.1/thumb/v7e-m+fp/hard\libc.a(lib_a-signal.o)
 .debug_loclists
                0x0001084c       0x88 d:/11.2 2022.02/bin/../lib/gcc/arm-none-eabi/11.2.1/thumb/v7e-m+fp/hard\libc.a(lib_a-signalr.o)
 .debug_loclists
                0x000108d4      0x234 d:/11.2 2022.02/bin/../lib/gcc/arm-none-eabi/11.2.1/thumb/v7e-m+fp/hard\libc.a(lib_a-stdio.o)
 .debug_loclists
                0x00010b08      0x11a d:/11.2 2022.02/bin/../lib/gcc/arm-none-eabi/11.2.1/thumb/v7e-m+fp/hard\libc.a(lib_a-wbuf.o)
 .debug_loclists
                0x00010c22       0x9d d:/11.2 2022.02/bin/../lib/gcc/arm-none-eabi/11.2.1/thumb/v7e-m+fp/hard\libc.a(lib_a-writer.o)
 .debug_loclists
                0x00010cbf       0x4c d:/11.2 2022.02/bin/../lib/gcc/arm-none-eabi/11.2.1/thumb/v7e-m+fp/hard\libc.a(lib_a-closer.o)
 .debug_loclists
                0x00010d0b       0xea d:/11.2 2022.02/bin/../lib/gcc/arm-none-eabi/11.2.1/thumb/v7e-m+fp/hard\libc.a(lib_a-fclose.o)
 .debug_loclists
                0x00010df5       0x71 d:/11.2 2022.02/bin/../lib/gcc/arm-none-eabi/11.2.1/thumb/v7e-m+fp/hard\libc.a(lib_a-fstatr.o)
 .debug_loclists
                0x00010e66       0x4c d:/11.2 2022.02/bin/../lib/gcc/arm-none-eabi/11.2.1/thumb/v7e-m+fp/hard\libc.a(lib_a-isattyr.o)
 .debug_loclists
                0x00010eb2       0x9d d:/11.2 2022.02/bin/../lib/gcc/arm-none-eabi/11.2.1/thumb/v7e-m+fp/hard\libc.a(lib_a-lseekr.o)
 .debug_loclists
                0x00010f4f       0x9d d:/11.2 2022.02/bin/../lib/gcc/arm-none-eabi/11.2.1/thumb/v7e-m+fp/hard\libc.a(lib_a-readr.o)
 .debug_loclists
                0x00010fec       0x23 d:/11.2 2022.02/bin/../lib/gcc/arm-none-eabi/11.2.1/thumb/v7e-m+fp/hard\libnosys.a(close.o)
 .debug_loclists
                0x0001100f       0x23 d:/11.2 2022.02/bin/../lib/gcc/arm-none-eabi/11.2.1/thumb/v7e-m+fp/hard\libnosys.a(fstat.o)
 .debug_loclists
                0x00011032       0x23 d:/11.2 2022.02/bin/../lib/gcc/arm-none-eabi/11.2.1/thumb/v7e-m+fp/hard\libnosys.a(isatty.o)
 .debug_loclists
                0x00011055       0x23 d:/11.2 2022.02/bin/../lib/gcc/arm-none-eabi/11.2.1/thumb/v7e-m+fp/hard\libnosys.a(kill.o)
 .debug_loclists
                0x00011078       0x3a d:/11.2 2022.02/bin/../lib/gcc/arm-none-eabi/11.2.1/thumb/v7e-m+fp/hard\libnosys.a(lseek.o)
 .debug_loclists
                0x000110b2       0x3a d:/11.2 2022.02/bin/../lib/gcc/arm-none-eabi/11.2.1/thumb/v7e-m+fp/hard\libnosys.a(read.o)
 .debug_loclists
                0x000110ec       0x32 d:/11.2 2022.02/bin/../lib/gcc/arm-none-eabi/11.2.1/thumb/v7e-m+fp/hard\libnosys.a(sbrk.o)
 .debug_loclists
                0x0001111e       0x3a d:/11.2 2022.02/bin/../lib/gcc/arm-none-eabi/11.2.1/thumb/v7e-m+fp/hard\libnosys.a(write.o)
 .debug_loclists
                0x00011158       0x17 d:/11.2 2022.02/bin/../lib/gcc/arm-none-eabi/11.2.1/thumb/v7e-m+fp/hard\libnosys.a(_exit.o)
 .debug_loclists
                0x0001116f      0xb0f d:/11.2 2022.02/bin/../lib/gcc/arm-none-eabi/11.2.1/thumb/v7e-m+fp/hard\libgcc.a(_udivmoddi4.o)

.debug_rnglists
                0x00000000      0xe55
 .debug_rnglists
                0x00000000       0x13 d:/11.2 2022.02/bin/../lib/gcc/arm-none-eabi/11.2.1/thumb/v7e-m+fp/hard\libc.a(lib_a-init.o)
 .debug_rnglists
                0x00000013       0x14 d:/11.2 2022.02/bin/../lib/gcc/arm-none-eabi/11.2.1/thumb/v7e-m+fp/hard\libc.a(lib_a-memset.o)
 .debug_rnglists
                0x00000027       0x25 d:/11.2 2022.02/bin/../lib/gcc/arm-none-eabi/11.2.1/thumb/v7e-m+fp/hard\libc.a(lib_a-vsprintf.o)
 .debug_rnglists
                0x0000004c      0x17b d:/11.2 2022.02/bin/../lib/gcc/arm-none-eabi/11.2.1/thumb/v7e-m+fp/hard\libc.a(lib_a-svfprintf.o)
 .debug_rnglists
                0x000001c7       0x19 d:/11.2 2022.02/bin/../lib/gcc/arm-none-eabi/11.2.1/thumb/v7e-m+fp/hard\libc.a(lib_a-wcrtomb.o)
 .debug_rnglists
                0x000001e0       0x19 d:/11.2 2022.02/bin/../lib/gcc/arm-none-eabi/11.2.1/thumb/v7e-m+fp/hard\libc.a(lib_a-wcsrtombs.o)
 .debug_rnglists
                0x000001f9       0x3c d:/11.2 2022.02/bin/../lib/gcc/arm-none-eabi/11.2.1/thumb/v7e-m+fp/hard\libc.a(lib_a-dtoa.o)
 .debug_rnglists
                0x00000235       0x1b d:/11.2 2022.02/bin/../lib/gcc/arm-none-eabi/11.2.1/thumb/v7e-m+fp/hard\libc.a(lib_a-freer.o)
 .debug_rnglists
                0x00000250       0x1f d:/11.2 2022.02/bin/../lib/gcc/arm-none-eabi/11.2.1/thumb/v7e-m+fp/hard\libc.a(lib_a-localeconv.o)
 .debug_rnglists
                0x0000026f       0x56 d:/11.2 2022.02/bin/../lib/gcc/arm-none-eabi/11.2.1/thumb/v7e-m+fp/hard\libc.a(lib_a-locale.o)
 .debug_rnglists
                0x000002c5       0x4b d:/11.2 2022.02/bin/../lib/gcc/arm-none-eabi/11.2.1/thumb/v7e-m+fp/hard\libc.a(lib_a-mallocr.o)
 .debug_rnglists
                0x00000310       0x63 d:/11.2 2022.02/bin/../lib/gcc/arm-none-eabi/11.2.1/thumb/v7e-m+fp/hard\libc.a(lib_a-mbtowc_r.o)
 .debug_rnglists
                0x00000373       0x13 d:/11.2 2022.02/bin/../lib/gcc/arm-none-eabi/11.2.1/thumb/v7e-m+fp/hard\libc.a(lib_a-mlock.o)
 .debug_rnglists
                0x00000386      0x140 d:/11.2 2022.02/bin/../lib/gcc/arm-none-eabi/11.2.1/thumb/v7e-m+fp/hard\libc.a(lib_a-mprec.o)
 .debug_rnglists
                0x000004c6       0x13 d:/11.2 2022.02/bin/../lib/gcc/arm-none-eabi/11.2.1/thumb/v7e-m+fp/hard\libc.a(lib_a-sbrkr.o)
 .debug_rnglists
                0x000004d9       0x31 d:/11.2 2022.02/bin/../lib/gcc/arm-none-eabi/11.2.1/thumb/v7e-m+fp/hard\libc.a(lib_a-s_frexp.o)
 .debug_rnglists
                0x0000050a       0x13 d:/11.2 2022.02/bin/../lib/gcc/arm-none-eabi/11.2.1/thumb/v7e-m+fp/hard\libc.a(lib_a-strncpy.o)
 .debug_rnglists
                0x0000051d       0x89 d:/11.2 2022.02/bin/../lib/gcc/arm-none-eabi/11.2.1/thumb/v7e-m+fp/hard\libc.a(lib_a-svfiprintf.o)
 .debug_rnglists
                0x000005a6       0x3f d:/11.2 2022.02/bin/../lib/gcc/arm-none-eabi/11.2.1/thumb/v7e-m+fp/hard\libc.a(lib_a-wcsnrtombs.o)
 .debug_rnglists
                0x000005e5       0x32 d:/11.2 2022.02/bin/../lib/gcc/arm-none-eabi/11.2.1/thumb/v7e-m+fp/hard\libc.a(lib_a-wctomb_r.o)
 .debug_rnglists
                0x00000617       0x19 d:/11.2 2022.02/bin/../lib/gcc/arm-none-eabi/11.2.1/thumb/v7e-m+fp/hard\libc.a(lib_a-assert.o)
 .debug_rnglists
                0x00000630       0x37 d:/11.2 2022.02/bin/../lib/gcc/arm-none-eabi/11.2.1/thumb/v7e-m+fp/hard\libc.a(lib_a-callocr.o)
 .debug_rnglists
                0x00000667       0x13 d:/11.2 2022.02/bin/../lib/gcc/arm-none-eabi/11.2.1/thumb/v7e-m+fp/hard\libc.a(lib_a-ctype_.o)
 .debug_rnglists
                0x0000067a       0x13 d:/11.2 2022.02/bin/../lib/gcc/arm-none-eabi/11.2.1/thumb/v7e-m+fp/hard\libc.a(lib_a-errno.o)
 .debug_rnglists
                0x0000068d       0x19 d:/11.2 2022.02/bin/../lib/gcc/arm-none-eabi/11.2.1/thumb/v7e-m+fp/hard\libc.a(lib_a-fiprintf.o)
 .debug_rnglists
                0x000006a6       0x14 d:/11.2 2022.02/bin/../lib/gcc/arm-none-eabi/11.2.1/thumb/v7e-m+fp/hard\libc.a(lib_a-memmove.o)
 .debug_rnglists
                0x000006ba       0xef d:/11.2 2022.02/bin/../lib/gcc/arm-none-eabi/11.2.1/thumb/v7e-m+fp/hard\libc.a(lib_a-reallocr.o)
 .debug_rnglists
                0x000007a9       0x26 d:/11.2 2022.02/bin/../lib/gcc/arm-none-eabi/11.2.1/thumb/v7e-m+fp/hard\libc.a(lib_a-reent.o)
 .debug_rnglists
                0x000007cf      0x15e d:/11.2 2022.02/bin/../lib/gcc/arm-none-eabi/11.2.1/thumb/v7e-m+fp/hard\libc.a(lib_a-vfiprintf.o)
 .debug_rnglists
                0x0000092d       0x26 d:/11.2 2022.02/bin/../lib/gcc/arm-none-eabi/11.2.1/thumb/v7e-m+fp/hard\libc.a(lib_a-wsetup.o)
 .debug_rnglists
                0x00000953       0x13 d:/11.2 2022.02/bin/../lib/gcc/arm-none-eabi/11.2.1/thumb/v7e-m+fp/hard\libc.a(lib_a-abort.o)
 .debug_rnglists
                0x00000966       0x71 d:/11.2 2022.02/bin/../lib/gcc/arm-none-eabi/11.2.1/thumb/v7e-m+fp/hard\libc.a(lib_a-fflush.o)
 .debug_rnglists
                0x000009d7       0x8e d:/11.2 2022.02/bin/../lib/gcc/arm-none-eabi/11.2.1/thumb/v7e-m+fp/hard\libc.a(lib_a-findfp.o)
 .debug_rnglists
                0x00000a65       0x47 d:/11.2 2022.02/bin/../lib/gcc/arm-none-eabi/11.2.1/thumb/v7e-m+fp/hard\libc.a(lib_a-fputwc.o)
 .debug_rnglists
                0x00000aac       0x3b d:/11.2 2022.02/bin/../lib/gcc/arm-none-eabi/11.2.1/thumb/v7e-m+fp/hard\libc.a(lib_a-fvwrite.o)
 .debug_rnglists
                0x00000ae7       0x19 d:/11.2 2022.02/bin/../lib/gcc/arm-none-eabi/11.2.1/thumb/v7e-m+fp/hard\libc.a(lib_a-fwalk.o)
 .debug_rnglists
                0x00000b00       0x5b d:/11.2 2022.02/bin/../lib/gcc/arm-none-eabi/11.2.1/thumb/v7e-m+fp/hard\libc.a(lib_a-makebuf.o)
 .debug_rnglists
                0x00000b5b       0x97 d:/11.2 2022.02/bin/../lib/gcc/arm-none-eabi/11.2.1/thumb/v7e-m+fp/hard\libc.a(lib_a-signal.o)
 .debug_rnglists
                0x00000bf2       0x19 d:/11.2 2022.02/bin/../lib/gcc/arm-none-eabi/11.2.1/thumb/v7e-m+fp/hard\libc.a(lib_a-signalr.o)
 .debug_rnglists
                0x00000c0b       0x2b d:/11.2 2022.02/bin/../lib/gcc/arm-none-eabi/11.2.1/thumb/v7e-m+fp/hard\libc.a(lib_a-stdio.o)
 .debug_rnglists
                0x00000c36       0x2b d:/11.2 2022.02/bin/../lib/gcc/arm-none-eabi/11.2.1/thumb/v7e-m+fp/hard\libc.a(lib_a-wbuf.o)
 .debug_rnglists
                0x00000c61       0x13 d:/11.2 2022.02/bin/../lib/gcc/arm-none-eabi/11.2.1/thumb/v7e-m+fp/hard\libc.a(lib_a-writer.o)
 .debug_rnglists
                0x00000c74       0x13 d:/11.2 2022.02/bin/../lib/gcc/arm-none-eabi/11.2.1/thumb/v7e-m+fp/hard\libc.a(lib_a-closer.o)
 .debug_rnglists
                0x00000c87       0x32 d:/11.2 2022.02/bin/../lib/gcc/arm-none-eabi/11.2.1/thumb/v7e-m+fp/hard\libc.a(lib_a-fclose.o)
 .debug_rnglists
                0x00000cb9       0x13 d:/11.2 2022.02/bin/../lib/gcc/arm-none-eabi/11.2.1/thumb/v7e-m+fp/hard\libc.a(lib_a-fstatr.o)
 .debug_rnglists
                0x00000ccc       0x13 d:/11.2 2022.02/bin/../lib/gcc/arm-none-eabi/11.2.1/thumb/v7e-m+fp/hard\libc.a(lib_a-isattyr.o)
 .debug_rnglists
                0x00000cdf       0x13 d:/11.2 2022.02/bin/../lib/gcc/arm-none-eabi/11.2.1/thumb/v7e-m+fp/hard\libc.a(lib_a-lseekr.o)
 .debug_rnglists
                0x00000cf2       0x13 d:/11.2 2022.02/bin/../lib/gcc/arm-none-eabi/11.2.1/thumb/v7e-m+fp/hard\libc.a(lib_a-readr.o)
 .debug_rnglists
                0x00000d05       0x13 d:/11.2 2022.02/bin/../lib/gcc/arm-none-eabi/11.2.1/thumb/v7e-m+fp/hard\libnosys.a(close.o)
 .debug_rnglists
                0x00000d18       0x13 d:/11.2 2022.02/bin/../lib/gcc/arm-none-eabi/11.2.1/thumb/v7e-m+fp/hard\libnosys.a(fstat.o)
 .debug_rnglists
                0x00000d2b       0x13 d:/11.2 2022.02/bin/../lib/gcc/arm-none-eabi/11.2.1/thumb/v7e-m+fp/hard\libnosys.a(getpid.o)
 .debug_rnglists
                0x00000d3e       0x13 d:/11.2 2022.02/bin/../lib/gcc/arm-none-eabi/11.2.1/thumb/v7e-m+fp/hard\libnosys.a(isatty.o)
 .debug_rnglists
                0x00000d51       0x13 d:/11.2 2022.02/bin/../lib/gcc/arm-none-eabi/11.2.1/thumb/v7e-m+fp/hard\libnosys.a(kill.o)
 .debug_rnglists
                0x00000d64       0x13 d:/11.2 2022.02/bin/../lib/gcc/arm-none-eabi/11.2.1/thumb/v7e-m+fp/hard\libnosys.a(lseek.o)
 .debug_rnglists
                0x00000d77       0x13 d:/11.2 2022.02/bin/../lib/gcc/arm-none-eabi/11.2.1/thumb/v7e-m+fp/hard\libnosys.a(read.o)
 .debug_rnglists
                0x00000d8a       0x13 d:/11.2 2022.02/bin/../lib/gcc/arm-none-eabi/11.2.1/thumb/v7e-m+fp/hard\libnosys.a(sbrk.o)
 .debug_rnglists
                0x00000d9d       0x13 d:/11.2 2022.02/bin/../lib/gcc/arm-none-eabi/11.2.1/thumb/v7e-m+fp/hard\libnosys.a(write.o)
 .debug_rnglists
                0x00000db0       0x13 d:/11.2 2022.02/bin/../lib/gcc/arm-none-eabi/11.2.1/thumb/v7e-m+fp/hard\libnosys.a(_exit.o)
 .debug_rnglists
                0x00000dc3       0x92 d:/11.2 2022.02/bin/../lib/gcc/arm-none-eabi/11.2.1/thumb/v7e-m+fp/hard\libgcc.a(_udivmoddi4.o)

.debug_line_str
                0x00000000       0xe7
 .debug_line_str
                0x00000000       0x66 d:/11.2 2022.02/bin/../lib/gcc/arm-none-eabi/11.2.1/thumb/v7e-m+fp/hard\libc.a(lib_a-strlen.o)
                                 0xcc (size before relaxing)
 .debug_line_str
                0x00000066        0x9 d:/11.2 2022.02/bin/../lib/gcc/arm-none-eabi/11.2.1/thumb/v7e-m+fp/hard\libc.a(lib_a-memchr.o)
                                 0xc0 (size before relaxing)
 .debug_line_str
                0x0000006f       0x10 d:/11.2 2022.02/bin/../lib/gcc/arm-none-eabi/11.2.1/thumb/v7e-m+fp/hard\libc.a(lib_a-memcpy.o)
                                 0xce (size before relaxing)
 .debug_line_str
                0x0000007f       0x54 d:/11.2 2022.02/bin/../lib/gcc/arm-none-eabi/11.2.1/thumb/v7e-m+fp/hard\libgcc.a(_arm_addsubdf3.o)
                                 0xa8 (size before relaxing)
 .debug_line_str
                0x000000d3       0xa8 d:/11.2 2022.02/bin/../lib/gcc/arm-none-eabi/11.2.1/thumb/v7e-m+fp/hard\libgcc.a(_arm_muldivdf3.o)
 .debug_line_str
                0x000000d3       0xa8 d:/11.2 2022.02/bin/../lib/gcc/arm-none-eabi/11.2.1/thumb/v7e-m+fp/hard\libgcc.a(_arm_cmpdf2.o)
 .debug_line_str
                0x000000d3       0xa8 d:/11.2 2022.02/bin/../lib/gcc/arm-none-eabi/11.2.1/thumb/v7e-m+fp/hard\libgcc.a(_arm_unorddf2.o)
 .debug_line_str
                0x000000d3       0xa8 d:/11.2 2022.02/bin/../lib/gcc/arm-none-eabi/11.2.1/thumb/v7e-m+fp/hard\libgcc.a(_arm_fixdfsi.o)
 .debug_line_str
                0x000000d3        0x8 d:/11.2 2022.02/bin/../lib/gcc/arm-none-eabi/11.2.1/thumb/v7e-m+fp/hard\libgcc.a(_aeabi_uldivmod.o)
                                 0x9e (size before relaxing)
 .debug_line_str
                0x000000db        0xc d:/11.2 2022.02/bin/../lib/gcc/arm-none-eabi/11.2.1/thumb/v7e-m+fp/hard\libgcc.a(_dvmd_tls.o)
                                 0xa6 (size before relaxing)

.stab           0x00000000       0xcc
 .stab          0x00000000       0x24 d:/11.2 2022.02/bin/../lib/gcc/arm-none-eabi/11.2.1/thumb/v7e-m+fp/hard\libnosys.a(close.o)
 .stab          0x00000024       0x18 d:/11.2 2022.02/bin/../lib/gcc/arm-none-eabi/11.2.1/thumb/v7e-m+fp/hard\libnosys.a(fstat.o)
                                 0x24 (size before relaxing)
 .stab          0x0000003c       0x18 d:/11.2 2022.02/bin/../lib/gcc/arm-none-eabi/11.2.1/thumb/v7e-m+fp/hard\libnosys.a(getpid.o)
                                 0x24 (size before relaxing)
 .stab          0x00000054       0x18 d:/11.2 2022.02/bin/../lib/gcc/arm-none-eabi/11.2.1/thumb/v7e-m+fp/hard\libnosys.a(isatty.o)
                                 0x24 (size before relaxing)
 .stab          0x0000006c       0x18 d:/11.2 2022.02/bin/../lib/gcc/arm-none-eabi/11.2.1/thumb/v7e-m+fp/hard\libnosys.a(kill.o)
                                 0x24 (size before relaxing)
 .stab          0x00000084       0x18 d:/11.2 2022.02/bin/../lib/gcc/arm-none-eabi/11.2.1/thumb/v7e-m+fp/hard\libnosys.a(lseek.o)
                                 0x24 (size before relaxing)
 .stab          0x0000009c       0x18 d:/11.2 2022.02/bin/../lib/gcc/arm-none-eabi/11.2.1/thumb/v7e-m+fp/hard\libnosys.a(read.o)
                                 0x24 (size before relaxing)
 .stab          0x000000b4       0x18 d:/11.2 2022.02/bin/../lib/gcc/arm-none-eabi/11.2.1/thumb/v7e-m+fp/hard\libnosys.a(write.o)
                                 0x24 (size before relaxing)

.stabstr        0x00000000      0x1b9
 .stabstr       0x00000000      0x1b9 d:/11.2 2022.02/bin/../lib/gcc/arm-none-eabi/11.2.1/thumb/v7e-m+fp/hard\libnosys.a(close.o)

Cross Reference Table

Symbol                                            File
ADC_IRQHandler                                    build/startup_stm32f407xx.o
AHBPrescTable                                     build/system_stm32f4xx.o
                                                  build/stm32f4xx_hal_rcc.o
APBPrescTable                                     build/system_stm32f4xx.o
                                                  build/stm32f4xx_hal_rcc.o
BusFault_Handler                                  build/stm32f4xx_it.o
CAN1_RX0_IRQHandler                               build/startup_stm32f407xx.o
CAN1_RX1_IRQHandler                               build/startup_stm32f407xx.o
CAN1_SCE_IRQHandler                               build/startup_stm32f407xx.o
CAN1_TX_IRQHandler                                build/startup_stm32f407xx.o
CAN2_RX0_IRQHandler                               build/startup_stm32f407xx.o
CAN2_RX1_IRQHandler                               build/startup_stm32f407xx.o
CAN2_SCE_IRQHandler                               build/startup_stm32f407xx.o
CAN2_TX_IRQHandler                                build/startup_stm32f407xx.o
DCMI_IRQHandler                                   build/startup_stm32f407xx.o
DMA1_Stream0_IRQHandler                           build/stm32f4xx_it.o
DMA1_Stream1_IRQHandler                           build/startup_stm32f407xx.o
DMA1_Stream2_IRQHandler                           build/stm32f4xx_it.o
DMA1_Stream3_IRQHandler                           build/startup_stm32f407xx.o
DMA1_Stream4_IRQHandler                           build/startup_stm32f407xx.o
DMA1_Stream5_IRQHandler                           build/startup_stm32f407xx.o
DMA1_Stream6_IRQHandler                           build/startup_stm32f407xx.o
DMA1_Stream7_IRQHandler                           build/startup_stm32f407xx.o
DMA2_Stream0_IRQHandler                           build/startup_stm32f407xx.o
DMA2_Stream1_IRQHandler                           build/startup_stm32f407xx.o
DMA2_Stream2_IRQHandler                           build/startup_stm32f407xx.o
DMA2_Stream3_IRQHandler                           build/startup_stm32f407xx.o
DMA2_Stream4_IRQHandler                           build/startup_stm32f407xx.o
DMA2_Stream5_IRQHandler                           build/startup_stm32f407xx.o
DMA2_Stream6_IRQHandler                           build/startup_stm32f407xx.o
DMA2_Stream7_IRQHandler                           build/startup_stm32f407xx.o
DebugMon_Handler                                  build/stm32f4xx_it.o
Default_Handler                                   build/startup_stm32f407xx.o
ETH_IRQHandler                                    build/startup_stm32f407xx.o
ETH_WKUP_IRQHandler                               build/startup_stm32f407xx.o
EXTI0_IRQHandler                                  build/startup_stm32f407xx.o
EXTI15_10_IRQHandler                              build/startup_stm32f407xx.o
EXTI1_IRQHandler                                  build/startup_stm32f407xx.o
EXTI2_IRQHandler                                  build/startup_stm32f407xx.o
EXTI3_IRQHandler                                  build/startup_stm32f407xx.o
EXTI4_IRQHandler                                  build/startup_stm32f407xx.o
EXTI9_5_IRQHandler                                build/startup_stm32f407xx.o
Error_Handler                                     build/main.o
                                                  build/usart.o
                                                  build/tim.o
FLASH_Erase_Sector                                build/stm32f4xx_hal_flash_ex.o
                                                  build/stm32f4xx_hal_flash.o
FLASH_FlushCaches                                 build/stm32f4xx_hal_flash_ex.o
                                                  build/stm32f4xx_hal_flash.o
FLASH_IRQHandler                                  build/startup_stm32f407xx.o
FLASH_WaitForLastOperation                        build/stm32f4xx_hal_flash.o
                                                  build/stm32f4xx_hal_flash_ex.o
FPU_IRQHandler                                    build/startup_stm32f407xx.o
FSMC_IRQHandler                                   build/startup_stm32f407xx.o
HAL_DBGMCU_DisableDBGSleepMode                    build/stm32f4xx_hal.o
HAL_DBGMCU_DisableDBGStandbyMode                  build/stm32f4xx_hal.o
HAL_DBGMCU_DisableDBGStopMode                     build/stm32f4xx_hal.o
HAL_DBGMCU_EnableDBGSleepMode                     build/stm32f4xx_hal.o
HAL_DBGMCU_EnableDBGStandbyMode                   build/stm32f4xx_hal.o
HAL_DBGMCU_EnableDBGStopMode                      build/stm32f4xx_hal.o
HAL_DMAEx_ChangeMemory                            build/stm32f4xx_hal_dma_ex.o
HAL_DMAEx_MultiBufferStart                        build/stm32f4xx_hal_dma_ex.o
HAL_DMAEx_MultiBufferStart_IT                     build/stm32f4xx_hal_dma_ex.o
HAL_DMA_Abort                                     build/stm32f4xx_hal_dma.o
                                                  build/stm32f4xx_hal_uart.o
HAL_DMA_Abort_IT                                  build/stm32f4xx_hal_dma.o
                                                  build/stm32f4xx_hal_uart.o
                                                  build/stm32f4xx_hal_tim_ex.o
                                                  build/stm32f4xx_hal_tim.o
HAL_DMA_DeInit                                    build/stm32f4xx_hal_dma.o
                                                  build/usart.o
HAL_DMA_GetError                                  build/stm32f4xx_hal_dma.o
                                                  build/stm32f4xx_hal_uart.o
HAL_DMA_GetState                                  build/stm32f4xx_hal_dma.o
HAL_DMA_IRQHandler                                build/stm32f4xx_hal_dma.o
                                                  build/stm32f4xx_it.o
HAL_DMA_Init                                      build/stm32f4xx_hal_dma.o
                                                  build/usart.o
HAL_DMA_PollForTransfer                           build/stm32f4xx_hal_dma.o
HAL_DMA_RegisterCallback                          build/stm32f4xx_hal_dma.o
HAL_DMA_Start                                     build/stm32f4xx_hal_dma.o
HAL_DMA_Start_IT                                  build/stm32f4xx_hal_dma.o
                                                  build/stm32f4xx_hal_uart.o
                                                  build/stm32f4xx_hal_tim_ex.o
                                                  build/stm32f4xx_hal_tim.o
HAL_DMA_UnRegisterCallback                        build/stm32f4xx_hal_dma.o
HAL_DeInit                                        build/stm32f4xx_hal.o
HAL_Delay                                         build/stm32f4xx_hal.o
HAL_DisableCompensationCell                       build/stm32f4xx_hal.o
HAL_EXTI_ClearConfigLine                          build/stm32f4xx_hal_exti.o
HAL_EXTI_ClearPending                             build/stm32f4xx_hal_exti.o
HAL_EXTI_GenerateSWI                              build/stm32f4xx_hal_exti.o
HAL_EXTI_GetConfigLine                            build/stm32f4xx_hal_exti.o
HAL_EXTI_GetHandle                                build/stm32f4xx_hal_exti.o
HAL_EXTI_GetPending                               build/stm32f4xx_hal_exti.o
HAL_EXTI_IRQHandler                               build/stm32f4xx_hal_exti.o
HAL_EXTI_RegisterCallback                         build/stm32f4xx_hal_exti.o
HAL_EXTI_SetConfigLine                            build/stm32f4xx_hal_exti.o
HAL_EnableCompensationCell                        build/stm32f4xx_hal.o
HAL_FLASHEx_Erase                                 build/stm32f4xx_hal_flash_ex.o
HAL_FLASHEx_Erase_IT                              build/stm32f4xx_hal_flash_ex.o
HAL_FLASHEx_OBGetConfig                           build/stm32f4xx_hal_flash_ex.o
HAL_FLASHEx_OBProgram                             build/stm32f4xx_hal_flash_ex.o
HAL_FLASH_EndOfOperationCallback                  build/stm32f4xx_hal_flash.o
HAL_FLASH_GetError                                build/stm32f4xx_hal_flash.o
HAL_FLASH_IRQHandler                              build/stm32f4xx_hal_flash.o
HAL_FLASH_Lock                                    build/stm32f4xx_hal_flash.o
HAL_FLASH_OB_Launch                               build/stm32f4xx_hal_flash.o
HAL_FLASH_OB_Lock                                 build/stm32f4xx_hal_flash.o
HAL_FLASH_OB_Unlock                               build/stm32f4xx_hal_flash.o
HAL_FLASH_OperationErrorCallback                  build/stm32f4xx_hal_flash.o
HAL_FLASH_Program                                 build/stm32f4xx_hal_flash.o
HAL_FLASH_Program_IT                              build/stm32f4xx_hal_flash.o
HAL_FLASH_Unlock                                  build/stm32f4xx_hal_flash.o
HAL_GPIO_DeInit                                   build/stm32f4xx_hal_gpio.o
                                                  build/usart.o
                                                  build/tim.o
HAL_GPIO_EXTI_Callback                            build/stm32f4xx_hal_gpio.o
HAL_GPIO_EXTI_IRQHandler                          build/stm32f4xx_hal_gpio.o
HAL_GPIO_Init                                     build/stm32f4xx_hal_gpio.o
                                                  build/usart.o
                                                  build/tim.o
                                                  build/stm32f4xx_hal_rcc.o
                                                  build/gpio.o
HAL_GPIO_LockPin                                  build/stm32f4xx_hal_gpio.o
HAL_GPIO_ReadPin                                  build/stm32f4xx_hal_gpio.o
HAL_GPIO_TogglePin                                build/stm32f4xx_hal_gpio.o
                                                  build/pid.o
HAL_GPIO_WritePin                                 build/stm32f4xx_hal_gpio.o
                                                  build/pid.o
                                                  build/gpio.o
HAL_GetDEVID                                      build/stm32f4xx_hal.o
HAL_GetHalVersion                                 build/stm32f4xx_hal.o
HAL_GetREVID                                      build/stm32f4xx_hal.o
HAL_GetTick                                       build/stm32f4xx_hal.o
                                                  build/stm32f4xx_hal_uart.o
                                                  build/stm32f4xx_hal_pwr_ex.o
                                                  build/stm32f4xx_hal_dma.o
                                                  build/stm32f4xx_hal_flash.o
                                                  build/stm32f4xx_hal_rcc_ex.o
                                                  build/stm32f4xx_hal_rcc.o
                                                  build/main.o
HAL_GetTickFreq                                   build/stm32f4xx_hal.o
HAL_GetTickPrio                                   build/stm32f4xx_hal.o
HAL_GetUIDw0                                      build/stm32f4xx_hal.o
HAL_GetUIDw1                                      build/stm32f4xx_hal.o
HAL_GetUIDw2                                      build/stm32f4xx_hal.o
HAL_HalfDuplex_EnableReceiver                     build/stm32f4xx_hal_uart.o
HAL_HalfDuplex_EnableTransmitter                  build/stm32f4xx_hal_uart.o
HAL_HalfDuplex_Init                               build/stm32f4xx_hal_uart.o
HAL_IncTick                                       build/stm32f4xx_hal.o
                                                  build/stm32f4xx_it.o
HAL_Init                                          build/stm32f4xx_hal.o
                                                  build/main.o
HAL_InitTick                                      build/stm32f4xx_hal.o
                                                  build/stm32f4xx_hal_rcc_ex.o
                                                  build/stm32f4xx_hal_rcc.o
HAL_LIN_Init                                      build/stm32f4xx_hal_uart.o
HAL_LIN_SendBreak                                 build/stm32f4xx_hal_uart.o
HAL_MPU_ConfigRegion                              build/stm32f4xx_hal_cortex.o
HAL_MPU_Disable                                   build/stm32f4xx_hal_cortex.o
HAL_MPU_Enable                                    build/stm32f4xx_hal_cortex.o
HAL_MspDeInit                                     build/stm32f4xx_hal.o
HAL_MspInit                                       build/stm32f4xx_hal_msp.o
HAL_MultiProcessor_EnterMuteMode                  build/stm32f4xx_hal_uart.o
HAL_MultiProcessor_ExitMuteMode                   build/stm32f4xx_hal_uart.o
HAL_MultiProcessor_Init                           build/stm32f4xx_hal_uart.o
HAL_NVIC_ClearPendingIRQ                          build/stm32f4xx_hal_cortex.o
HAL_NVIC_DisableIRQ                               build/stm32f4xx_hal_cortex.o
HAL_NVIC_EnableIRQ                                build/stm32f4xx_hal_cortex.o
                                                  build/dma.o
HAL_NVIC_GetActive                                build/stm32f4xx_hal_cortex.o
HAL_NVIC_GetPendingIRQ                            build/stm32f4xx_hal_cortex.o
HAL_NVIC_GetPriority                              build/stm32f4xx_hal_cortex.o
HAL_NVIC_GetPriorityGrouping                      build/stm32f4xx_hal_cortex.o
HAL_NVIC_SetPendingIRQ                            build/stm32f4xx_hal_cortex.o
HAL_NVIC_SetPriority                              build/stm32f4xx_hal_cortex.o
                                                  build/dma.o
                                                  build/stm32f4xx_hal.o
HAL_NVIC_SetPriorityGrouping                      build/stm32f4xx_hal_cortex.o
                                                  build/stm32f4xx_hal.o
HAL_NVIC_SystemReset                              build/stm32f4xx_hal_cortex.o
HAL_PWREx_ControlVoltageScaling                   build/stm32f4xx_hal_pwr_ex.o
HAL_PWREx_DisableBkUpReg                          build/stm32f4xx_hal_pwr_ex.o
HAL_PWREx_DisableFlashPowerDown                   build/stm32f4xx_hal_pwr_ex.o
HAL_PWREx_EnableBkUpReg                           build/stm32f4xx_hal_pwr_ex.o
HAL_PWREx_EnableFlashPowerDown                    build/stm32f4xx_hal_pwr_ex.o
HAL_PWREx_GetVoltageRange                         build/stm32f4xx_hal_pwr_ex.o
HAL_PWR_ConfigPVD                                 build/stm32f4xx_hal_pwr.o
HAL_PWR_DeInit                                    build/stm32f4xx_hal_pwr.o
HAL_PWR_DisableBkUpAccess                         build/stm32f4xx_hal_pwr.o
HAL_PWR_DisablePVD                                build/stm32f4xx_hal_pwr.o
HAL_PWR_DisableSEVOnPend                          build/stm32f4xx_hal_pwr.o
HAL_PWR_DisableSleepOnExit                        build/stm32f4xx_hal_pwr.o
HAL_PWR_DisableWakeUpPin                          build/stm32f4xx_hal_pwr.o
HAL_PWR_EnableBkUpAccess                          build/stm32f4xx_hal_pwr.o
HAL_PWR_EnablePVD                                 build/stm32f4xx_hal_pwr.o
HAL_PWR_EnableSEVOnPend                           build/stm32f4xx_hal_pwr.o
HAL_PWR_EnableSleepOnExit                         build/stm32f4xx_hal_pwr.o
HAL_PWR_EnableWakeUpPin                           build/stm32f4xx_hal_pwr.o
HAL_PWR_EnterSLEEPMode                            build/stm32f4xx_hal_pwr.o
HAL_PWR_EnterSTANDBYMode                          build/stm32f4xx_hal_pwr.o
HAL_PWR_EnterSTOPMode                             build/stm32f4xx_hal_pwr.o
HAL_PWR_PVDCallback                               build/stm32f4xx_hal_pwr.o
HAL_PWR_PVD_IRQHandler                            build/stm32f4xx_hal_pwr.o
HAL_RCCEx_DisablePLLI2S                           build/stm32f4xx_hal_rcc_ex.o
HAL_RCCEx_EnablePLLI2S                            build/stm32f4xx_hal_rcc_ex.o
HAL_RCCEx_GetPeriphCLKConfig                      build/stm32f4xx_hal_rcc_ex.o
HAL_RCCEx_GetPeriphCLKFreq                        build/stm32f4xx_hal_rcc_ex.o
HAL_RCCEx_PeriphCLKConfig                         build/stm32f4xx_hal_rcc_ex.o
HAL_RCC_CSSCallback                               build/stm32f4xx_hal_rcc.o
HAL_RCC_ClockConfig                               build/stm32f4xx_hal_rcc.o
                                                  build/main.o
HAL_RCC_DeInit                                    build/stm32f4xx_hal_rcc_ex.o
                                                  build/stm32f4xx_hal_rcc.o
HAL_RCC_DisableCSS                                build/stm32f4xx_hal_rcc.o
HAL_RCC_EnableCSS                                 build/stm32f4xx_hal_rcc.o
HAL_RCC_GetClockConfig                            build/stm32f4xx_hal_rcc.o
HAL_RCC_GetHCLKFreq                               build/stm32f4xx_hal_rcc.o
HAL_RCC_GetOscConfig                              build/stm32f4xx_hal_rcc.o
HAL_RCC_GetPCLK1Freq                              build/stm32f4xx_hal_rcc.o
                                                  build/stm32f4xx_hal_uart.o
HAL_RCC_GetPCLK2Freq                              build/stm32f4xx_hal_rcc.o
                                                  build/stm32f4xx_hal_uart.o
HAL_RCC_GetSysClockFreq                           build/stm32f4xx_hal_rcc.o
HAL_RCC_MCOConfig                                 build/stm32f4xx_hal_rcc.o
HAL_RCC_NMI_IRQHandler                            build/stm32f4xx_hal_rcc.o
HAL_RCC_OscConfig                                 build/stm32f4xx_hal_rcc.o
                                                  build/main.o
HAL_ResumeTick                                    build/stm32f4xx_hal.o
HAL_SYSTICK_CLKSourceConfig                       build/stm32f4xx_hal_cortex.o
HAL_SYSTICK_Callback                              build/stm32f4xx_hal_cortex.o
HAL_SYSTICK_Config                                build/stm32f4xx_hal_cortex.o
                                                  build/stm32f4xx_hal.o
HAL_SYSTICK_IRQHandler                            build/stm32f4xx_hal_cortex.o
HAL_SetTickFreq                                   build/stm32f4xx_hal.o
HAL_SuspendTick                                   build/stm32f4xx_hal.o
HAL_TIMEx_BreakCallback                           build/stm32f4xx_hal_tim_ex.o
                                                  build/stm32f4xx_hal_tim.o
HAL_TIMEx_CommutCallback                          build/stm32f4xx_hal_tim_ex.o
                                                  build/stm32f4xx_hal_tim.o
HAL_TIMEx_CommutHalfCpltCallback                  build/stm32f4xx_hal_tim_ex.o
HAL_TIMEx_ConfigBreakDeadTime                     build/stm32f4xx_hal_tim_ex.o
HAL_TIMEx_ConfigCommutEvent                       build/stm32f4xx_hal_tim_ex.o
HAL_TIMEx_ConfigCommutEvent_DMA                   build/stm32f4xx_hal_tim_ex.o
HAL_TIMEx_ConfigCommutEvent_IT                    build/stm32f4xx_hal_tim_ex.o
HAL_TIMEx_GetChannelNState                        build/stm32f4xx_hal_tim_ex.o
HAL_TIMEx_HallSensor_DeInit                       build/stm32f4xx_hal_tim_ex.o
HAL_TIMEx_HallSensor_GetState                     build/stm32f4xx_hal_tim_ex.o
HAL_TIMEx_HallSensor_Init                         build/stm32f4xx_hal_tim_ex.o
HAL_TIMEx_HallSensor_MspDeInit                    build/stm32f4xx_hal_tim_ex.o
HAL_TIMEx_HallSensor_MspInit                      build/stm32f4xx_hal_tim_ex.o
HAL_TIMEx_HallSensor_Start                        build/stm32f4xx_hal_tim_ex.o
HAL_TIMEx_HallSensor_Start_DMA                    build/stm32f4xx_hal_tim_ex.o
HAL_TIMEx_HallSensor_Start_IT                     build/stm32f4xx_hal_tim_ex.o
HAL_TIMEx_HallSensor_Stop                         build/stm32f4xx_hal_tim_ex.o
HAL_TIMEx_HallSensor_Stop_DMA                     build/stm32f4xx_hal_tim_ex.o
HAL_TIMEx_HallSensor_Stop_IT                      build/stm32f4xx_hal_tim_ex.o
HAL_TIMEx_MasterConfigSynchronization             build/stm32f4xx_hal_tim_ex.o
                                                  build/tim.o
HAL_TIMEx_OCN_Start                               build/stm32f4xx_hal_tim_ex.o
HAL_TIMEx_OCN_Start_DMA                           build/stm32f4xx_hal_tim_ex.o
HAL_TIMEx_OCN_Start_IT                            build/stm32f4xx_hal_tim_ex.o
HAL_TIMEx_OCN_Stop                                build/stm32f4xx_hal_tim_ex.o
HAL_TIMEx_OCN_Stop_DMA                            build/stm32f4xx_hal_tim_ex.o
HAL_TIMEx_OCN_Stop_IT                             build/stm32f4xx_hal_tim_ex.o
HAL_TIMEx_OnePulseN_Start                         build/stm32f4xx_hal_tim_ex.o
HAL_TIMEx_OnePulseN_Start_IT                      build/stm32f4xx_hal_tim_ex.o
HAL_TIMEx_OnePulseN_Stop                          build/stm32f4xx_hal_tim_ex.o
HAL_TIMEx_OnePulseN_Stop_IT                       build/stm32f4xx_hal_tim_ex.o
HAL_TIMEx_PWMN_Start                              build/stm32f4xx_hal_tim_ex.o
HAL_TIMEx_PWMN_Start_DMA                          build/stm32f4xx_hal_tim_ex.o
HAL_TIMEx_PWMN_Start_IT                           build/stm32f4xx_hal_tim_ex.o
HAL_TIMEx_PWMN_Stop                               build/stm32f4xx_hal_tim_ex.o
HAL_TIMEx_PWMN_Stop_DMA                           build/stm32f4xx_hal_tim_ex.o
HAL_TIMEx_PWMN_Stop_IT                            build/stm32f4xx_hal_tim_ex.o
HAL_TIMEx_RemapConfig                             build/stm32f4xx_hal_tim_ex.o
HAL_TIM_Base_DeInit                               build/stm32f4xx_hal_tim.o
HAL_TIM_Base_GetState                             build/stm32f4xx_hal_tim.o
HAL_TIM_Base_Init                                 build/stm32f4xx_hal_tim.o
HAL_TIM_Base_MspDeInit                            build/stm32f4xx_hal_tim.o
HAL_TIM_Base_MspInit                              build/stm32f4xx_hal_tim.o
HAL_TIM_Base_Start                                build/stm32f4xx_hal_tim.o
HAL_TIM_Base_Start_DMA                            build/stm32f4xx_hal_tim.o
HAL_TIM_Base_Start_IT                             build/stm32f4xx_hal_tim.o
HAL_TIM_Base_Stop                                 build/stm32f4xx_hal_tim.o
HAL_TIM_Base_Stop_DMA                             build/stm32f4xx_hal_tim.o
HAL_TIM_Base_Stop_IT                              build/stm32f4xx_hal_tim.o
HAL_TIM_ConfigClockSource                         build/stm32f4xx_hal_tim.o
HAL_TIM_ConfigOCrefClear                          build/stm32f4xx_hal_tim.o
HAL_TIM_ConfigTI1Input                            build/stm32f4xx_hal_tim.o
HAL_TIM_DMABurstState                             build/stm32f4xx_hal_tim.o
HAL_TIM_DMABurst_MultiReadStart                   build/stm32f4xx_hal_tim.o
HAL_TIM_DMABurst_MultiWriteStart                  build/stm32f4xx_hal_tim.o
HAL_TIM_DMABurst_ReadStart                        build/stm32f4xx_hal_tim.o
HAL_TIM_DMABurst_ReadStop                         build/stm32f4xx_hal_tim.o
HAL_TIM_DMABurst_WriteStart                       build/stm32f4xx_hal_tim.o
HAL_TIM_DMABurst_WriteStop                        build/stm32f4xx_hal_tim.o
HAL_TIM_Encoder_DeInit                            build/stm32f4xx_hal_tim.o
HAL_TIM_Encoder_GetState                          build/stm32f4xx_hal_tim.o
HAL_TIM_Encoder_Init                              build/stm32f4xx_hal_tim.o
                                                  build/tim.o
HAL_TIM_Encoder_MspDeInit                         build/tim.o
                                                  build/stm32f4xx_hal_tim.o
HAL_TIM_Encoder_MspInit                           build/tim.o
                                                  build/stm32f4xx_hal_tim.o
HAL_TIM_Encoder_Start                             build/stm32f4xx_hal_tim.o
                                                  build/pid.o
HAL_TIM_Encoder_Start_DMA                         build/stm32f4xx_hal_tim.o
HAL_TIM_Encoder_Start_IT                          build/stm32f4xx_hal_tim.o
HAL_TIM_Encoder_Stop                              build/stm32f4xx_hal_tim.o
HAL_TIM_Encoder_Stop_DMA                          build/stm32f4xx_hal_tim.o
HAL_TIM_Encoder_Stop_IT                           build/stm32f4xx_hal_tim.o
HAL_TIM_ErrorCallback                             build/stm32f4xx_hal_tim.o
                                                  build/stm32f4xx_hal_tim_ex.o
HAL_TIM_GenerateEvent                             build/stm32f4xx_hal_tim.o
HAL_TIM_GetActiveChannel                          build/stm32f4xx_hal_tim.o
HAL_TIM_GetChannelState                           build/stm32f4xx_hal_tim.o
HAL_TIM_IC_CaptureCallback                        build/stm32f4xx_hal_tim.o
HAL_TIM_IC_CaptureHalfCpltCallback                build/stm32f4xx_hal_tim.o
HAL_TIM_IC_ConfigChannel                          build/stm32f4xx_hal_tim.o
HAL_TIM_IC_DeInit                                 build/stm32f4xx_hal_tim.o
HAL_TIM_IC_GetState                               build/stm32f4xx_hal_tim.o
HAL_TIM_IC_Init                                   build/stm32f4xx_hal_tim.o
HAL_TIM_IC_MspDeInit                              build/stm32f4xx_hal_tim.o
HAL_TIM_IC_MspInit                                build/stm32f4xx_hal_tim.o
HAL_TIM_IC_Start                                  build/stm32f4xx_hal_tim.o
HAL_TIM_IC_Start_DMA                              build/stm32f4xx_hal_tim.o
HAL_TIM_IC_Start_IT                               build/stm32f4xx_hal_tim.o
HAL_TIM_IC_Stop                                   build/stm32f4xx_hal_tim.o
HAL_TIM_IC_Stop_DMA                               build/stm32f4xx_hal_tim.o
HAL_TIM_IC_Stop_IT                                build/stm32f4xx_hal_tim.o
HAL_TIM_IRQHandler                                build/stm32f4xx_hal_tim.o
HAL_TIM_MspPostInit                               build/tim.o
HAL_TIM_OC_ConfigChannel                          build/stm32f4xx_hal_tim.o
HAL_TIM_OC_DeInit                                 build/stm32f4xx_hal_tim.o
HAL_TIM_OC_DelayElapsedCallback                   build/stm32f4xx_hal_tim.o
HAL_TIM_OC_GetState                               build/stm32f4xx_hal_tim.o
HAL_TIM_OC_Init                                   build/stm32f4xx_hal_tim.o
HAL_TIM_OC_MspDeInit                              build/stm32f4xx_hal_tim.o
HAL_TIM_OC_MspInit                                build/stm32f4xx_hal_tim.o
HAL_TIM_OC_Start                                  build/stm32f4xx_hal_tim.o
HAL_TIM_OC_Start_DMA                              build/stm32f4xx_hal_tim.o
HAL_TIM_OC_Start_IT                               build/stm32f4xx_hal_tim.o
HAL_TIM_OC_Stop                                   build/stm32f4xx_hal_tim.o
HAL_TIM_OC_Stop_DMA                               build/stm32f4xx_hal_tim.o
HAL_TIM_OC_Stop_IT                                build/stm32f4xx_hal_tim.o
HAL_TIM_OnePulse_ConfigChannel                    build/stm32f4xx_hal_tim.o
HAL_TIM_OnePulse_DeInit                           build/stm32f4xx_hal_tim.o
HAL_TIM_OnePulse_GetState                         build/stm32f4xx_hal_tim.o
HAL_TIM_OnePulse_Init                             build/stm32f4xx_hal_tim.o
HAL_TIM_OnePulse_MspDeInit                        build/stm32f4xx_hal_tim.o
HAL_TIM_OnePulse_MspInit                          build/stm32f4xx_hal_tim.o
HAL_TIM_OnePulse_Start                            build/stm32f4xx_hal_tim.o
HAL_TIM_OnePulse_Start_IT                         build/stm32f4xx_hal_tim.o
HAL_TIM_OnePulse_Stop                             build/stm32f4xx_hal_tim.o
HAL_TIM_OnePulse_Stop_IT                          build/stm32f4xx_hal_tim.o
HAL_TIM_PWM_ConfigChannel                         build/stm32f4xx_hal_tim.o
                                                  build/tim.o
HAL_TIM_PWM_DeInit                                build/stm32f4xx_hal_tim.o
HAL_TIM_PWM_GetState                              build/stm32f4xx_hal_tim.o
HAL_TIM_PWM_Init                                  build/stm32f4xx_hal_tim.o
                                                  build/tim.o
HAL_TIM_PWM_MspDeInit                             build/tim.o
                                                  build/stm32f4xx_hal_tim.o
HAL_TIM_PWM_MspInit                               build/tim.o
                                                  build/stm32f4xx_hal_tim.o
HAL_TIM_PWM_PulseFinishedCallback                 build/stm32f4xx_hal_tim.o
                                                  build/stm32f4xx_hal_tim_ex.o
HAL_TIM_PWM_PulseFinishedHalfCpltCallback         build/stm32f4xx_hal_tim.o
HAL_TIM_PWM_Start                                 build/stm32f4xx_hal_tim.o
                                                  build/pid.o
HAL_TIM_PWM_Start_DMA                             build/stm32f4xx_hal_tim.o
HAL_TIM_PWM_Start_IT                              build/stm32f4xx_hal_tim.o
HAL_TIM_PWM_Stop                                  build/stm32f4xx_hal_tim.o
HAL_TIM_PWM_Stop_DMA                              build/stm32f4xx_hal_tim.o
HAL_TIM_PWM_Stop_IT                               build/stm32f4xx_hal_tim.o
HAL_TIM_PeriodElapsedCallback                     build/stm32f4xx_hal_tim.o
HAL_TIM_PeriodElapsedHalfCpltCallback             build/stm32f4xx_hal_tim.o
HAL_TIM_ReadCapturedValue                         build/stm32f4xx_hal_tim.o
HAL_TIM_SlaveConfigSynchro                        build/stm32f4xx_hal_tim.o
HAL_TIM_SlaveConfigSynchro_IT                     build/stm32f4xx_hal_tim.o
HAL_TIM_TriggerCallback                           build/stm32f4xx_hal_tim.o
HAL_TIM_TriggerHalfCpltCallback                   build/stm32f4xx_hal_tim.o
HAL_UARTEx_ReceiveToIdle                          build/stm32f4xx_hal_uart.o
HAL_UARTEx_ReceiveToIdle_DMA                      build/stm32f4xx_hal_uart.o
                                                  build/zigbee_edc24.o
HAL_UARTEx_ReceiveToIdle_IT                       build/stm32f4xx_hal_uart.o
HAL_UARTEx_RxEventCallback                        build/zigbee_edc24.o
                                                  build/stm32f4xx_hal_uart.o
HAL_UART_Abort                                    build/stm32f4xx_hal_uart.o
HAL_UART_AbortCpltCallback                        build/stm32f4xx_hal_uart.o
HAL_UART_AbortReceive                             build/stm32f4xx_hal_uart.o
HAL_UART_AbortReceiveCpltCallback                 build/stm32f4xx_hal_uart.o
HAL_UART_AbortReceive_IT                          build/stm32f4xx_hal_uart.o
HAL_UART_AbortTransmit                            build/stm32f4xx_hal_uart.o
HAL_UART_AbortTransmitCpltCallback                build/stm32f4xx_hal_uart.o
HAL_UART_AbortTransmit_IT                         build/stm32f4xx_hal_uart.o
HAL_UART_Abort_IT                                 build/stm32f4xx_hal_uart.o
HAL_UART_DMAPause                                 build/stm32f4xx_hal_uart.o
HAL_UART_DMAResume                                build/stm32f4xx_hal_uart.o
HAL_UART_DMAStop                                  build/stm32f4xx_hal_uart.o
HAL_UART_DeInit                                   build/stm32f4xx_hal_uart.o
HAL_UART_ErrorCallback                            build/zigbee_edc24.o
                                                  build/stm32f4xx_hal_uart.o
HAL_UART_GetError                                 build/stm32f4xx_hal_uart.o
HAL_UART_GetState                                 build/stm32f4xx_hal_uart.o
HAL_UART_IRQHandler                               build/stm32f4xx_hal_uart.o
HAL_UART_Init                                     build/stm32f4xx_hal_uart.o
                                                  build/usart.o
HAL_UART_MspDeInit                                build/usart.o
HAL_UART_MspInit                                  build/usart.o
HAL_UART_Receive                                  build/stm32f4xx_hal_uart.o
HAL_UART_Receive_DMA                              build/stm32f4xx_hal_uart.o
HAL_UART_Receive_IT                               build/stm32f4xx_hal_uart.o
HAL_UART_RxCpltCallback                           build/stm32f4xx_hal_uart.o
HAL_UART_RxHalfCpltCallback                       build/stm32f4xx_hal_uart.o
HAL_UART_Transmit                                 build/stm32f4xx_hal_uart.o
                                                  build/zigbee_edc24.o
                                                  build/usart.o
HAL_UART_Transmit_DMA                             build/stm32f4xx_hal_uart.o
HAL_UART_Transmit_IT                              build/stm32f4xx_hal_uart.o
HAL_UART_TxCpltCallback                           build/stm32f4xx_hal_uart.o
HAL_UART_TxHalfCpltCallback                       build/stm32f4xx_hal_uart.o
HASH_RNG_IRQHandler                               build/startup_stm32f407xx.o
HardFault_Handler                                 build/stm32f4xx_it.o
I2C1_ER_IRQHandler                                build/startup_stm32f407xx.o
I2C1_EV_IRQHandler                                build/startup_stm32f407xx.o
I2C2_ER_IRQHandler                                build/startup_stm32f407xx.o
I2C2_EV_IRQHandler                                build/startup_stm32f407xx.o
I2C3_ER_IRQHandler                                build/startup_stm32f407xx.o
I2C3_EV_IRQHandler                                build/startup_stm32f407xx.o
MX_DMA_Init                                       build/dma.o
                                                  build/main.o
MX_GPIO_Init                                      build/gpio.o
                                                  build/main.o
MX_TIM1_Init                                      build/tim.o
                                                  build/main.o
MX_TIM3_Init                                      build/tim.o
                                                  build/main.o
MX_TIM4_Init                                      build/tim.o
                                                  build/main.o
MX_TIM5_Init                                      build/tim.o
                                                  build/main.o
MX_TIM8_Init                                      build/tim.o
                                                  build/main.o
MX_UART4_Init                                     build/usart.o
                                                  build/main.o
MX_UART5_Init                                     build/usart.o
                                                  build/main.o
MX_USART2_UART_Init                               build/usart.o
                                                  build/main.o
MemManage_Handler                                 build/stm32f4xx_it.o
NMI_Handler                                       build/stm32f4xx_it.o
OTG_FS_IRQHandler                                 build/startup_stm32f407xx.o
OTG_FS_WKUP_IRQHandler                            build/startup_stm32f407xx.o
OTG_HS_EP1_IN_IRQHandler                          build/startup_stm32f407xx.o
OTG_HS_EP1_OUT_IRQHandler                         build/startup_stm32f407xx.o
OTG_HS_IRQHandler                                 build/startup_stm32f407xx.o
OTG_HS_WKUP_IRQHandler                            build/startup_stm32f407xx.o
PVD_IRQHandler                                    build/startup_stm32f407xx.o
PendSV_Handler                                    build/stm32f4xx_it.o
RCC_IRQHandler                                    build/startup_stm32f407xx.o
RTC_Alarm_IRQHandler                              build/startup_stm32f407xx.o
RTC_WKUP_IRQHandler                               build/startup_stm32f407xx.o
Reset_Handler                                     build/startup_stm32f407xx.o
SDIO_IRQHandler                                   build/startup_stm32f407xx.o
SPI1_IRQHandler                                   build/startup_stm32f407xx.o
SPI2_IRQHandler                                   build/startup_stm32f407xx.o
SPI3_IRQHandler                                   build/startup_stm32f407xx.o
SVC_Handler                                       build/stm32f4xx_it.o
SysTick_Handler                                   build/stm32f4xx_it.o
SystemClock_Config                                build/main.o
SystemCoreClock                                   build/system_stm32f4xx.o
                                                  build/stm32f4xx_hal.o
                                                  build/stm32f4xx_hal_dma.o
                                                  build/stm32f4xx_hal_rcc_ex.o
                                                  build/stm32f4xx_hal_rcc.o
SystemCoreClockUpdate                             build/system_stm32f4xx.o
SystemInit                                        build/system_stm32f4xx.o
                                                  build/startup_stm32f407xx.o
TAMP_STAMP_IRQHandler                             build/startup_stm32f407xx.o
TIM1_BRK_TIM9_IRQHandler                          build/startup_stm32f407xx.o
TIM1_CC_IRQHandler                                build/startup_stm32f407xx.o
TIM1_TRG_COM_TIM11_IRQHandler                     build/startup_stm32f407xx.o
TIM1_UP_TIM10_IRQHandler                          build/startup_stm32f407xx.o
TIM2_IRQHandler                                   build/startup_stm32f407xx.o
TIM3_IRQHandler                                   build/startup_stm32f407xx.o
TIM4_IRQHandler                                   build/startup_stm32f407xx.o
TIM5_IRQHandler                                   build/startup_stm32f407xx.o
TIM6_DAC_IRQHandler                               build/startup_stm32f407xx.o
TIM7_IRQHandler                                   build/startup_stm32f407xx.o
TIM8_BRK_TIM12_IRQHandler                         build/startup_stm32f407xx.o
TIM8_CC_IRQHandler                                build/startup_stm32f407xx.o
TIM8_TRG_COM_TIM14_IRQHandler                     build/startup_stm32f407xx.o
TIM8_UP_TIM13_IRQHandler                          build/startup_stm32f407xx.o
TIMEx_DMACommutationCplt                          build/stm32f4xx_hal_tim_ex.o
                                                  build/stm32f4xx_hal_tim.o
TIMEx_DMACommutationHalfCplt                      build/stm32f4xx_hal_tim_ex.o
                                                  build/stm32f4xx_hal_tim.o
TIM_Base_SetConfig                                build/stm32f4xx_hal_tim.o
                                                  build/stm32f4xx_hal_tim_ex.o
TIM_CCxChannelCmd                                 build/stm32f4xx_hal_tim.o
                                                  build/stm32f4xx_hal_tim_ex.o
TIM_DMACaptureCplt                                build/stm32f4xx_hal_tim.o
                                                  build/stm32f4xx_hal_tim_ex.o
TIM_DMACaptureHalfCplt                            build/stm32f4xx_hal_tim.o
                                                  build/stm32f4xx_hal_tim_ex.o
TIM_DMADelayPulseHalfCplt                         build/stm32f4xx_hal_tim.o
                                                  build/stm32f4xx_hal_tim_ex.o
TIM_DMAError                                      build/stm32f4xx_hal_tim.o
                                                  build/stm32f4xx_hal_tim_ex.o
TIM_ETR_SetConfig                                 build/stm32f4xx_hal_tim.o
TIM_OC2_SetConfig                                 build/stm32f4xx_hal_tim.o
                                                  build/stm32f4xx_hal_tim_ex.o
TIM_TI1_SetConfig                                 build/stm32f4xx_hal_tim.o
                                                  build/stm32f4xx_hal_tim_ex.o
UART4_IRQHandler                                  build/startup_stm32f407xx.o
UART5_IRQHandler                                  build/startup_stm32f407xx.o
UART_Start_Receive_DMA                            build/stm32f4xx_hal_uart.o
UART_Start_Receive_IT                             build/stm32f4xx_hal_uart.o
USART1_IRQHandler                                 build/startup_stm32f407xx.o
USART2_IRQHandler                                 build/startup_stm32f407xx.o
USART3_IRQHandler                                 build/startup_stm32f407xx.o
USART6_IRQHandler                                 build/startup_stm32f407xx.o
UsageFault_Handler                                build/stm32f4xx_it.o
WWDG_IRQHandler                                   build/startup_stm32f407xx.o
_Balloc                                           d:/11.2 2022.02/bin/../lib/gcc/arm-none-eabi/11.2.1/thumb/v7e-m+fp/hard\libc.a(lib_a-mprec.o)
                                                  d:/11.2 2022.02/bin/../lib/gcc/arm-none-eabi/11.2.1/thumb/v7e-m+fp/hard\libc.a(lib_a-dtoa.o)
_Bfree                                            d:/11.2 2022.02/bin/../lib/gcc/arm-none-eabi/11.2.1/thumb/v7e-m+fp/hard\libc.a(lib_a-mprec.o)
                                                  d:/11.2 2022.02/bin/../lib/gcc/arm-none-eabi/11.2.1/thumb/v7e-m+fp/hard\libc.a(lib_a-dtoa.o)
_ITM_deregisterTMCloneTable                       d:/11.2 2022.02/bin/../lib/gcc/arm-none-eabi/11.2.1/thumb/v7e-m+fp/hard/crtbegin.o
_ITM_registerTMCloneTable                         d:/11.2 2022.02/bin/../lib/gcc/arm-none-eabi/11.2.1/thumb/v7e-m+fp/hard/crtbegin.o
_PathLocale                                       d:/11.2 2022.02/bin/../lib/gcc/arm-none-eabi/11.2.1/thumb/v7e-m+fp/hard\libc.a(lib_a-locale.o)
__C_locale                                        d:/11.2 2022.02/bin/../lib/gcc/arm-none-eabi/11.2.1/thumb/v7e-m+fp/hard\libc.a(lib_a-locale.o)
__TMC_END__                                       d:/11.2 2022.02/bin/../lib/gcc/arm-none-eabi/11.2.1/thumb/v7e-m+fp/hard/crtend.o
                                                  d:/11.2 2022.02/bin/../lib/gcc/arm-none-eabi/11.2.1/thumb/v7e-m+fp/hard/crtbegin.o
__adddf3                                          d:/11.2 2022.02/bin/../lib/gcc/arm-none-eabi/11.2.1/thumb/v7e-m+fp/hard\libgcc.a(_arm_addsubdf3.o)
__aeabi_cdcmpeq                                   d:/11.2 2022.02/bin/../lib/gcc/arm-none-eabi/11.2.1/thumb/v7e-m+fp/hard\libgcc.a(_arm_cmpdf2.o)
__aeabi_cdcmple                                   d:/11.2 2022.02/bin/../lib/gcc/arm-none-eabi/11.2.1/thumb/v7e-m+fp/hard\libgcc.a(_arm_cmpdf2.o)
__aeabi_cdrcmple                                  d:/11.2 2022.02/bin/../lib/gcc/arm-none-eabi/11.2.1/thumb/v7e-m+fp/hard\libgcc.a(_arm_cmpdf2.o)
__aeabi_d2iz                                      d:/11.2 2022.02/bin/../lib/gcc/arm-none-eabi/11.2.1/thumb/v7e-m+fp/hard\libgcc.a(_arm_fixdfsi.o)
                                                  d:/11.2 2022.02/bin/../lib/gcc/arm-none-eabi/11.2.1/thumb/v7e-m+fp/hard\libc.a(lib_a-dtoa.o)
                                                  d:/11.2 2022.02/bin/../lib/gcc/arm-none-eabi/11.2.1/thumb/v7e-m+fp/hard\libc.a(lib_a-svfprintf.o)
                                                  build/pid.o
__aeabi_dadd                                      d:/11.2 2022.02/bin/../lib/gcc/arm-none-eabi/11.2.1/thumb/v7e-m+fp/hard\libgcc.a(_arm_addsubdf3.o)
                                                  d:/11.2 2022.02/bin/../lib/gcc/arm-none-eabi/11.2.1/thumb/v7e-m+fp/hard\libm.a(lib_a-s_floor.o)
                                                  d:/11.2 2022.02/bin/../lib/gcc/arm-none-eabi/11.2.1/thumb/v7e-m+fp/hard\libm.a(lib_a-s_ceil.o)
                                                  d:/11.2 2022.02/bin/../lib/gcc/arm-none-eabi/11.2.1/thumb/v7e-m+fp/hard\libc.a(lib_a-dtoa.o)
                                                  build/pid.o
                                                  build/inverse_kinematics.o
__aeabi_dcmpeq                                    d:/11.2 2022.02/bin/../lib/gcc/arm-none-eabi/11.2.1/thumb/v7e-m+fp/hard\libgcc.a(_arm_cmpdf2.o)
                                                  d:/11.2 2022.02/bin/../lib/gcc/arm-none-eabi/11.2.1/thumb/v7e-m+fp/hard\libc.a(lib_a-dtoa.o)
                                                  d:/11.2 2022.02/bin/../lib/gcc/arm-none-eabi/11.2.1/thumb/v7e-m+fp/hard\libc.a(lib_a-svfprintf.o)
__aeabi_dcmpge                                    d:/11.2 2022.02/bin/../lib/gcc/arm-none-eabi/11.2.1/thumb/v7e-m+fp/hard\libgcc.a(_arm_cmpdf2.o)
                                                  build/pid.o
__aeabi_dcmpgt                                    d:/11.2 2022.02/bin/../lib/gcc/arm-none-eabi/11.2.1/thumb/v7e-m+fp/hard\libgcc.a(_arm_cmpdf2.o)
                                                  d:/11.2 2022.02/bin/../lib/gcc/arm-none-eabi/11.2.1/thumb/v7e-m+fp/hard\libm.a(lib_a-s_floor.o)
                                                  d:/11.2 2022.02/bin/../lib/gcc/arm-none-eabi/11.2.1/thumb/v7e-m+fp/hard\libm.a(lib_a-s_ceil.o)
                                                  d:/11.2 2022.02/bin/../lib/gcc/arm-none-eabi/11.2.1/thumb/v7e-m+fp/hard\libc.a(lib_a-dtoa.o)
                                                  d:/11.2 2022.02/bin/../lib/gcc/arm-none-eabi/11.2.1/thumb/v7e-m+fp/hard\libc.a(lib_a-svfprintf.o)
__aeabi_dcmple                                    d:/11.2 2022.02/bin/../lib/gcc/arm-none-eabi/11.2.1/thumb/v7e-m+fp/hard\libgcc.a(_arm_cmpdf2.o)
                                                  d:/11.2 2022.02/bin/../lib/gcc/arm-none-eabi/11.2.1/thumb/v7e-m+fp/hard\libc.a(lib_a-dtoa.o)
                                                  d:/11.2 2022.02/bin/../lib/gcc/arm-none-eabi/11.2.1/thumb/v7e-m+fp/hard\libc.a(lib_a-svfprintf.o)
                                                  build/pid.o
__aeabi_dcmplt                                    d:/11.2 2022.02/bin/../lib/gcc/arm-none-eabi/11.2.1/thumb/v7e-m+fp/hard\libgcc.a(_arm_cmpdf2.o)
                                                  d:/11.2 2022.02/bin/../lib/gcc/arm-none-eabi/11.2.1/thumb/v7e-m+fp/hard\libc.a(lib_a-dtoa.o)
                                                  d:/11.2 2022.02/bin/../lib/gcc/arm-none-eabi/11.2.1/thumb/v7e-m+fp/hard\libc.a(lib_a-svfprintf.o)
                                                  build/pid.o
__aeabi_dcmpun                                    d:/11.2 2022.02/bin/../lib/gcc/arm-none-eabi/11.2.1/thumb/v7e-m+fp/hard\libgcc.a(_arm_unorddf2.o)
                                                  d:/11.2 2022.02/bin/../lib/gcc/arm-none-eabi/11.2.1/thumb/v7e-m+fp/hard\libc.a(lib_a-svfprintf.o)
__aeabi_ddiv                                      d:/11.2 2022.02/bin/../lib/gcc/arm-none-eabi/11.2.1/thumb/v7e-m+fp/hard\libgcc.a(_arm_muldivdf3.o)
                                                  d:/11.2 2022.02/bin/../lib/gcc/arm-none-eabi/11.2.1/thumb/v7e-m+fp/hard\libc.a(lib_a-mprec.o)
                                                  d:/11.2 2022.02/bin/../lib/gcc/arm-none-eabi/11.2.1/thumb/v7e-m+fp/hard\libc.a(lib_a-dtoa.o)
                                                  build/pid.o
                                                  build/inverse_kinematics.o
__aeabi_dmul                                      d:/11.2 2022.02/bin/../lib/gcc/arm-none-eabi/11.2.1/thumb/v7e-m+fp/hard\libgcc.a(_arm_muldivdf3.o)
                                                  d:/11.2 2022.02/bin/../lib/gcc/arm-none-eabi/11.2.1/thumb/v7e-m+fp/hard\libgcc.a(_arm_muldf3.o)
                                                  d:/11.2 2022.02/bin/../lib/gcc/arm-none-eabi/11.2.1/thumb/v7e-m+fp/hard\libc.a(lib_a-s_frexp.o)
                                                  d:/11.2 2022.02/bin/../lib/gcc/arm-none-eabi/11.2.1/thumb/v7e-m+fp/hard\libc.a(lib_a-mprec.o)
                                                  d:/11.2 2022.02/bin/../lib/gcc/arm-none-eabi/11.2.1/thumb/v7e-m+fp/hard\libc.a(lib_a-dtoa.o)
                                                  d:/11.2 2022.02/bin/../lib/gcc/arm-none-eabi/11.2.1/thumb/v7e-m+fp/hard\libc.a(lib_a-svfprintf.o)
                                                  build/pid.o
                                                  build/inverse_kinematics.o
__aeabi_drsub                                     d:/11.2 2022.02/bin/../lib/gcc/arm-none-eabi/11.2.1/thumb/v7e-m+fp/hard\libgcc.a(_arm_addsubdf3.o)
__aeabi_dsub                                      d:/11.2 2022.02/bin/../lib/gcc/arm-none-eabi/11.2.1/thumb/v7e-m+fp/hard\libgcc.a(_arm_addsubdf3.o)
                                                  d:/11.2 2022.02/bin/../lib/gcc/arm-none-eabi/11.2.1/thumb/v7e-m+fp/hard\libc.a(lib_a-dtoa.o)
                                                  d:/11.2 2022.02/bin/../lib/gcc/arm-none-eabi/11.2.1/thumb/v7e-m+fp/hard\libc.a(lib_a-svfprintf.o)
                                                  build/pid.o
                                                  build/inverse_kinematics.o
                                                  build/main.o
__aeabi_f2d                                       d:/11.2 2022.02/bin/../lib/gcc/arm-none-eabi/11.2.1/thumb/v7e-m+fp/hard\libgcc.a(_arm_addsubdf3.o)
__aeabi_i2d                                       d:/11.2 2022.02/bin/../lib/gcc/arm-none-eabi/11.2.1/thumb/v7e-m+fp/hard\libgcc.a(_arm_addsubdf3.o)
                                                  d:/11.2 2022.02/bin/../lib/gcc/arm-none-eabi/11.2.1/thumb/v7e-m+fp/hard\libc.a(lib_a-dtoa.o)
                                                  d:/11.2 2022.02/bin/../lib/gcc/arm-none-eabi/11.2.1/thumb/v7e-m+fp/hard\libc.a(lib_a-svfprintf.o)
                                                  build/pid.o
                                                  build/main.o
__aeabi_idiv0                                     d:/11.2 2022.02/bin/../lib/gcc/arm-none-eabi/11.2.1/thumb/v7e-m+fp/hard\libgcc.a(_dvmd_tls.o)
__aeabi_l2d                                       d:/11.2 2022.02/bin/../lib/gcc/arm-none-eabi/11.2.1/thumb/v7e-m+fp/hard\libgcc.a(_arm_addsubdf3.o)
__aeabi_ldiv0                                     d:/11.2 2022.02/bin/../lib/gcc/arm-none-eabi/11.2.1/thumb/v7e-m+fp/hard\libgcc.a(_dvmd_tls.o)
                                                  d:/11.2 2022.02/bin/../lib/gcc/arm-none-eabi/11.2.1/thumb/v7e-m+fp/hard\libgcc.a(_aeabi_uldivmod.o)
__aeabi_ui2d                                      d:/11.2 2022.02/bin/../lib/gcc/arm-none-eabi/11.2.1/thumb/v7e-m+fp/hard\libgcc.a(_arm_addsubdf3.o)
                                                  d:/11.2 2022.02/bin/../lib/gcc/arm-none-eabi/11.2.1/thumb/v7e-m+fp/hard\libc.a(lib_a-dtoa.o)
                                                  build/pid.o
                                                  build/inverse_kinematics.o
__aeabi_ul2d                                      d:/11.2 2022.02/bin/../lib/gcc/arm-none-eabi/11.2.1/thumb/v7e-m+fp/hard\libgcc.a(_arm_addsubdf3.o)
__aeabi_uldivmod                                  d:/11.2 2022.02/bin/../lib/gcc/arm-none-eabi/11.2.1/thumb/v7e-m+fp/hard\libgcc.a(_aeabi_uldivmod.o)
                                                  build/stm32f4xx_hal_uart.o
                                                  build/stm32f4xx_hal_rcc.o
__any_on                                          d:/11.2 2022.02/bin/../lib/gcc/arm-none-eabi/11.2.1/thumb/v7e-m+fp/hard\libc.a(lib_a-mprec.o)
__ascii_mbtowc                                    d:/11.2 2022.02/bin/../lib/gcc/arm-none-eabi/11.2.1/thumb/v7e-m+fp/hard\libc.a(lib_a-mbtowc_r.o)
                                                  d:/11.2 2022.02/bin/../lib/gcc/arm-none-eabi/11.2.1/thumb/v7e-m+fp/hard\libc.a(lib_a-locale.o)
__ascii_wctomb                                    d:/11.2 2022.02/bin/../lib/gcc/arm-none-eabi/11.2.1/thumb/v7e-m+fp/hard\libc.a(lib_a-wctomb_r.o)
                                                  d:/11.2 2022.02/bin/../lib/gcc/arm-none-eabi/11.2.1/thumb/v7e-m+fp/hard\libc.a(lib_a-locale.o)
__assert                                          d:/11.2 2022.02/bin/../lib/gcc/arm-none-eabi/11.2.1/thumb/v7e-m+fp/hard\libc.a(lib_a-assert.o)
__assert_func                                     d:/11.2 2022.02/bin/../lib/gcc/arm-none-eabi/11.2.1/thumb/v7e-m+fp/hard\libc.a(lib_a-assert.o)
                                                  d:/11.2 2022.02/bin/../lib/gcc/arm-none-eabi/11.2.1/thumb/v7e-m+fp/hard\libc.a(lib_a-mprec.o)
                                                  d:/11.2 2022.02/bin/../lib/gcc/arm-none-eabi/11.2.1/thumb/v7e-m+fp/hard\libc.a(lib_a-dtoa.o)
__b2d                                             d:/11.2 2022.02/bin/../lib/gcc/arm-none-eabi/11.2.1/thumb/v7e-m+fp/hard\libc.a(lib_a-mprec.o)
__bss_end__                                       d:/11.2 2022.02/bin/../lib/gcc/arm-none-eabi/11.2.1/thumb/v7e-m+fp/hard/crt0.o
__bss_start__                                     d:/11.2 2022.02/bin/../lib/gcc/arm-none-eabi/11.2.1/thumb/v7e-m+fp/hard/crt0.o
__call_exitprocs                                  d:/11.2 2022.02/bin/../lib/gcc/arm-none-eabi/11.2.1/thumb/v7e-m+fp/hard\libc.a(lib_a-__call_atexit.o)
                                                  d:/11.2 2022.02/bin/../lib/gcc/arm-none-eabi/11.2.1/thumb/v7e-m+fp/hard\libc.a(lib_a-exit.o)
__cmpdf2                                          d:/11.2 2022.02/bin/../lib/gcc/arm-none-eabi/11.2.1/thumb/v7e-m+fp/hard\libgcc.a(_arm_cmpdf2.o)
__copybits                                        d:/11.2 2022.02/bin/../lib/gcc/arm-none-eabi/11.2.1/thumb/v7e-m+fp/hard\libc.a(lib_a-mprec.o)
__d2b                                             d:/11.2 2022.02/bin/../lib/gcc/arm-none-eabi/11.2.1/thumb/v7e-m+fp/hard\libc.a(lib_a-mprec.o)
                                                  d:/11.2 2022.02/bin/../lib/gcc/arm-none-eabi/11.2.1/thumb/v7e-m+fp/hard\libc.a(lib_a-dtoa.o)
__default_locale                                  d:/11.2 2022.02/bin/../lib/gcc/arm-none-eabi/11.2.1/thumb/v7e-m+fp/hard\libc.a(lib_a-locale.o)
__deregister_frame_info                           d:/11.2 2022.02/bin/../lib/gcc/arm-none-eabi/11.2.1/thumb/v7e-m+fp/hard/crtbegin.o
__divdf3                                          d:/11.2 2022.02/bin/../lib/gcc/arm-none-eabi/11.2.1/thumb/v7e-m+fp/hard\libgcc.a(_arm_muldivdf3.o)
__dso_handle                                      d:/11.2 2022.02/bin/../lib/gcc/arm-none-eabi/11.2.1/thumb/v7e-m+fp/hard/crtbegin.o
__env_lock                                        d:/11.2 2022.02/bin/../lib/gcc/arm-none-eabi/11.2.1/thumb/v7e-m+fp/hard\libc.a(lib_a-envlock.o)
                                                  d:/11.2 2022.02/bin/../lib/gcc/arm-none-eabi/11.2.1/thumb/v7e-m+fp/hard\libc.a(lib_a-getenv_r.o)
__env_unlock                                      d:/11.2 2022.02/bin/../lib/gcc/arm-none-eabi/11.2.1/thumb/v7e-m+fp/hard\libc.a(lib_a-envlock.o)
                                                  d:/11.2 2022.02/bin/../lib/gcc/arm-none-eabi/11.2.1/thumb/v7e-m+fp/hard\libc.a(lib_a-getenv_r.o)
__eqdf2                                           d:/11.2 2022.02/bin/../lib/gcc/arm-none-eabi/11.2.1/thumb/v7e-m+fp/hard\libgcc.a(_arm_cmpdf2.o)
__errno                                           d:/11.2 2022.02/bin/../lib/gcc/arm-none-eabi/11.2.1/thumb/v7e-m+fp/hard\libc.a(lib_a-errno.o)
                                                  d:/11.2 2022.02/bin/../lib/gcc/arm-none-eabi/11.2.1/thumb/v7e-m+fp/hard\libc.a(lib_a-callocr.o)
                                                  d:/11.2 2022.02/bin/../lib/gcc/arm-none-eabi/11.2.1/thumb/v7e-m+fp/hard\libc.a(lib_a-strtol.o)
__eucjp_mbtowc                                    d:/11.2 2022.02/bin/../lib/gcc/arm-none-eabi/11.2.1/thumb/v7e-m+fp/hard\libc.a(lib_a-mbtowc_r.o)
                                                  d:/11.2 2022.02/bin/../lib/gcc/arm-none-eabi/11.2.1/thumb/v7e-m+fp/hard\libc.a(lib_a-locale.o)
__eucjp_wctomb                                    d:/11.2 2022.02/bin/../lib/gcc/arm-none-eabi/11.2.1/thumb/v7e-m+fp/hard\libc.a(lib_a-wctomb_r.o)
                                                  d:/11.2 2022.02/bin/../lib/gcc/arm-none-eabi/11.2.1/thumb/v7e-m+fp/hard\libc.a(lib_a-locale.o)
__extendsfdf2                                     d:/11.2 2022.02/bin/../lib/gcc/arm-none-eabi/11.2.1/thumb/v7e-m+fp/hard\libgcc.a(_arm_addsubdf3.o)
__fixdfsi                                         d:/11.2 2022.02/bin/../lib/gcc/arm-none-eabi/11.2.1/thumb/v7e-m+fp/hard\libgcc.a(_arm_fixdfsi.o)
__floatdidf                                       d:/11.2 2022.02/bin/../lib/gcc/arm-none-eabi/11.2.1/thumb/v7e-m+fp/hard\libgcc.a(_arm_addsubdf3.o)
__floatsidf                                       d:/11.2 2022.02/bin/../lib/gcc/arm-none-eabi/11.2.1/thumb/v7e-m+fp/hard\libgcc.a(_arm_addsubdf3.o)
__floatundidf                                     d:/11.2 2022.02/bin/../lib/gcc/arm-none-eabi/11.2.1/thumb/v7e-m+fp/hard\libgcc.a(_arm_addsubdf3.o)
__floatunsidf                                     d:/11.2 2022.02/bin/../lib/gcc/arm-none-eabi/11.2.1/thumb/v7e-m+fp/hard\libgcc.a(_arm_addsubdf3.o)
__fp_lock_all                                     d:/11.2 2022.02/bin/../lib/gcc/arm-none-eabi/11.2.1/thumb/v7e-m+fp/hard\libc.a(lib_a-findfp.o)
__fp_unlock_all                                   d:/11.2 2022.02/bin/../lib/gcc/arm-none-eabi/11.2.1/thumb/v7e-m+fp/hard\libc.a(lib_a-findfp.o)
__fputwc                                          d:/11.2 2022.02/bin/../lib/gcc/arm-none-eabi/11.2.1/thumb/v7e-m+fp/hard\libc.a(lib_a-fputwc.o)
__gedf2                                           d:/11.2 2022.02/bin/../lib/gcc/arm-none-eabi/11.2.1/thumb/v7e-m+fp/hard\libgcc.a(_arm_cmpdf2.o)
__get_locale_env                                  d:/11.2 2022.02/bin/../lib/gcc/arm-none-eabi/11.2.1/thumb/v7e-m+fp/hard\libc.a(lib_a-locale.o)
__global_locale                                   d:/11.2 2022.02/bin/../lib/gcc/arm-none-eabi/11.2.1/thumb/v7e-m+fp/hard\libc.a(lib_a-locale.o)
                                                  d:/11.2 2022.02/bin/../lib/gcc/arm-none-eabi/11.2.1/thumb/v7e-m+fp/hard\libc.a(lib_a-vfiprintf.o)
                                                  d:/11.2 2022.02/bin/../lib/gcc/arm-none-eabi/11.2.1/thumb/v7e-m+fp/hard\libc.a(lib_a-wctomb_r.o)
                                                  d:/11.2 2022.02/bin/../lib/gcc/arm-none-eabi/11.2.1/thumb/v7e-m+fp/hard\libc.a(lib_a-wcsnrtombs.o)
                                                  d:/11.2 2022.02/bin/../lib/gcc/arm-none-eabi/11.2.1/thumb/v7e-m+fp/hard\libc.a(lib_a-svfiprintf.o)
                                                  d:/11.2 2022.02/bin/../lib/gcc/arm-none-eabi/11.2.1/thumb/v7e-m+fp/hard\libc.a(lib_a-mbtowc_r.o)
                                                  d:/11.2 2022.02/bin/../lib/gcc/arm-none-eabi/11.2.1/thumb/v7e-m+fp/hard\libc.a(lib_a-localeconv.o)
                                                  d:/11.2 2022.02/bin/../lib/gcc/arm-none-eabi/11.2.1/thumb/v7e-m+fp/hard\libc.a(lib_a-wcrtomb.o)
                                                  d:/11.2 2022.02/bin/../lib/gcc/arm-none-eabi/11.2.1/thumb/v7e-m+fp/hard\libc.a(lib_a-svfprintf.o)
__gtdf2                                           d:/11.2 2022.02/bin/../lib/gcc/arm-none-eabi/11.2.1/thumb/v7e-m+fp/hard\libgcc.a(_arm_cmpdf2.o)
__hi0bits                                         d:/11.2 2022.02/bin/../lib/gcc/arm-none-eabi/11.2.1/thumb/v7e-m+fp/hard\libc.a(lib_a-mprec.o)
                                                  d:/11.2 2022.02/bin/../lib/gcc/arm-none-eabi/11.2.1/thumb/v7e-m+fp/hard\libc.a(lib_a-dtoa.o)
__i2b                                             d:/11.2 2022.02/bin/../lib/gcc/arm-none-eabi/11.2.1/thumb/v7e-m+fp/hard\libc.a(lib_a-mprec.o)
                                                  d:/11.2 2022.02/bin/../lib/gcc/arm-none-eabi/11.2.1/thumb/v7e-m+fp/hard\libc.a(lib_a-dtoa.o)
__init_array_end                                  d:/11.2 2022.02/bin/../lib/gcc/arm-none-eabi/11.2.1/thumb/v7e-m+fp/hard\libc.a(lib_a-init.o)
__init_array_start                                d:/11.2 2022.02/bin/../lib/gcc/arm-none-eabi/11.2.1/thumb/v7e-m+fp/hard\libc.a(lib_a-init.o)
__jis_mbtowc                                      d:/11.2 2022.02/bin/../lib/gcc/arm-none-eabi/11.2.1/thumb/v7e-m+fp/hard\libc.a(lib_a-mbtowc_r.o)
                                                  d:/11.2 2022.02/bin/../lib/gcc/arm-none-eabi/11.2.1/thumb/v7e-m+fp/hard\libc.a(lib_a-locale.o)
__jis_wctomb                                      d:/11.2 2022.02/bin/../lib/gcc/arm-none-eabi/11.2.1/thumb/v7e-m+fp/hard\libc.a(lib_a-wctomb_r.o)
                                                  d:/11.2 2022.02/bin/../lib/gcc/arm-none-eabi/11.2.1/thumb/v7e-m+fp/hard\libc.a(lib_a-locale.o)
__ledf2                                           d:/11.2 2022.02/bin/../lib/gcc/arm-none-eabi/11.2.1/thumb/v7e-m+fp/hard\libgcc.a(_arm_cmpdf2.o)
__libc_fini_array                                 d:/11.2 2022.02/bin/../lib/gcc/arm-none-eabi/11.2.1/thumb/v7e-m+fp/hard/crt0.o
__libc_init_array                                 d:/11.2 2022.02/bin/../lib/gcc/arm-none-eabi/11.2.1/thumb/v7e-m+fp/hard\libc.a(lib_a-init.o)
                                                  build/startup_stm32f407xx.o
                                                  d:/11.2 2022.02/bin/../lib/gcc/arm-none-eabi/11.2.1/thumb/v7e-m+fp/hard/crt0.o
__lo0bits                                         d:/11.2 2022.02/bin/../lib/gcc/arm-none-eabi/11.2.1/thumb/v7e-m+fp/hard\libc.a(lib_a-mprec.o)
__loadlocale                                      d:/11.2 2022.02/bin/../lib/gcc/arm-none-eabi/11.2.1/thumb/v7e-m+fp/hard\libc.a(lib_a-locale.o)
__locale_mb_cur_max                               d:/11.2 2022.02/bin/../lib/gcc/arm-none-eabi/11.2.1/thumb/v7e-m+fp/hard\libc.a(lib_a-locale.o)
                                                  d:/11.2 2022.02/bin/../lib/gcc/arm-none-eabi/11.2.1/thumb/v7e-m+fp/hard\libc.a(lib_a-fputwc.o)
                                                  d:/11.2 2022.02/bin/../lib/gcc/arm-none-eabi/11.2.1/thumb/v7e-m+fp/hard\libc.a(lib_a-vfiprintf.o)
                                                  d:/11.2 2022.02/bin/../lib/gcc/arm-none-eabi/11.2.1/thumb/v7e-m+fp/hard\libc.a(lib_a-svfiprintf.o)
                                                  d:/11.2 2022.02/bin/../lib/gcc/arm-none-eabi/11.2.1/thumb/v7e-m+fp/hard\libc.a(lib_a-svfprintf.o)
__localeconv_l                                    d:/11.2 2022.02/bin/../lib/gcc/arm-none-eabi/11.2.1/thumb/v7e-m+fp/hard\libc.a(lib_a-localeconv.o)
__lshift                                          d:/11.2 2022.02/bin/../lib/gcc/arm-none-eabi/11.2.1/thumb/v7e-m+fp/hard\libc.a(lib_a-mprec.o)
                                                  d:/11.2 2022.02/bin/../lib/gcc/arm-none-eabi/11.2.1/thumb/v7e-m+fp/hard\libc.a(lib_a-dtoa.o)
__ltdf2                                           d:/11.2 2022.02/bin/../lib/gcc/arm-none-eabi/11.2.1/thumb/v7e-m+fp/hard\libgcc.a(_arm_cmpdf2.o)
__malloc_av_                                      d:/11.2 2022.02/bin/../lib/gcc/arm-none-eabi/11.2.1/thumb/v7e-m+fp/hard\libc.a(lib_a-mallocr.o)
                                                  d:/11.2 2022.02/bin/../lib/gcc/arm-none-eabi/11.2.1/thumb/v7e-m+fp/hard\libc.a(lib_a-reallocr.o)
                                                  d:/11.2 2022.02/bin/../lib/gcc/arm-none-eabi/11.2.1/thumb/v7e-m+fp/hard\libc.a(lib_a-freer.o)
__malloc_current_mallinfo                         d:/11.2 2022.02/bin/../lib/gcc/arm-none-eabi/11.2.1/thumb/v7e-m+fp/hard\libc.a(lib_a-mallocr.o)
                                                  d:/11.2 2022.02/bin/../lib/gcc/arm-none-eabi/11.2.1/thumb/v7e-m+fp/hard\libc.a(lib_a-freer.o)
__malloc_lock                                     d:/11.2 2022.02/bin/../lib/gcc/arm-none-eabi/11.2.1/thumb/v7e-m+fp/hard\libc.a(lib_a-mlock.o)
                                                  d:/11.2 2022.02/bin/../lib/gcc/arm-none-eabi/11.2.1/thumb/v7e-m+fp/hard\libc.a(lib_a-reallocr.o)
                                                  d:/11.2 2022.02/bin/../lib/gcc/arm-none-eabi/11.2.1/thumb/v7e-m+fp/hard\libc.a(lib_a-mallocr.o)
                                                  d:/11.2 2022.02/bin/../lib/gcc/arm-none-eabi/11.2.1/thumb/v7e-m+fp/hard\libc.a(lib_a-freer.o)
__malloc_max_sbrked_mem                           d:/11.2 2022.02/bin/../lib/gcc/arm-none-eabi/11.2.1/thumb/v7e-m+fp/hard\libc.a(lib_a-mallocr.o)
__malloc_max_total_mem                            d:/11.2 2022.02/bin/../lib/gcc/arm-none-eabi/11.2.1/thumb/v7e-m+fp/hard\libc.a(lib_a-mallocr.o)
__malloc_sbrk_base                                d:/11.2 2022.02/bin/../lib/gcc/arm-none-eabi/11.2.1/thumb/v7e-m+fp/hard\libc.a(lib_a-mallocr.o)
                                                  d:/11.2 2022.02/bin/../lib/gcc/arm-none-eabi/11.2.1/thumb/v7e-m+fp/hard\libc.a(lib_a-freer.o)
__malloc_top_pad                                  d:/11.2 2022.02/bin/../lib/gcc/arm-none-eabi/11.2.1/thumb/v7e-m+fp/hard\libc.a(lib_a-mallocr.o)
                                                  d:/11.2 2022.02/bin/../lib/gcc/arm-none-eabi/11.2.1/thumb/v7e-m+fp/hard\libc.a(lib_a-freer.o)
__malloc_trim_threshold                           d:/11.2 2022.02/bin/../lib/gcc/arm-none-eabi/11.2.1/thumb/v7e-m+fp/hard\libc.a(lib_a-mallocr.o)
                                                  d:/11.2 2022.02/bin/../lib/gcc/arm-none-eabi/11.2.1/thumb/v7e-m+fp/hard\libc.a(lib_a-freer.o)
__malloc_unlock                                   d:/11.2 2022.02/bin/../lib/gcc/arm-none-eabi/11.2.1/thumb/v7e-m+fp/hard\libc.a(lib_a-mlock.o)
                                                  d:/11.2 2022.02/bin/../lib/gcc/arm-none-eabi/11.2.1/thumb/v7e-m+fp/hard\libc.a(lib_a-reallocr.o)
                                                  d:/11.2 2022.02/bin/../lib/gcc/arm-none-eabi/11.2.1/thumb/v7e-m+fp/hard\libc.a(lib_a-mallocr.o)
                                                  d:/11.2 2022.02/bin/../lib/gcc/arm-none-eabi/11.2.1/thumb/v7e-m+fp/hard\libc.a(lib_a-freer.o)
__mcmp                                            d:/11.2 2022.02/bin/../lib/gcc/arm-none-eabi/11.2.1/thumb/v7e-m+fp/hard\libc.a(lib_a-mprec.o)
                                                  d:/11.2 2022.02/bin/../lib/gcc/arm-none-eabi/11.2.1/thumb/v7e-m+fp/hard\libc.a(lib_a-dtoa.o)
__mdiff                                           d:/11.2 2022.02/bin/../lib/gcc/arm-none-eabi/11.2.1/thumb/v7e-m+fp/hard\libc.a(lib_a-mprec.o)
                                                  d:/11.2 2022.02/bin/../lib/gcc/arm-none-eabi/11.2.1/thumb/v7e-m+fp/hard\libc.a(lib_a-dtoa.o)
__mprec_bigtens                                   d:/11.2 2022.02/bin/../lib/gcc/arm-none-eabi/11.2.1/thumb/v7e-m+fp/hard\libc.a(lib_a-mprec.o)
                                                  d:/11.2 2022.02/bin/../lib/gcc/arm-none-eabi/11.2.1/thumb/v7e-m+fp/hard\libc.a(lib_a-dtoa.o)
__mprec_tens                                      d:/11.2 2022.02/bin/../lib/gcc/arm-none-eabi/11.2.1/thumb/v7e-m+fp/hard\libc.a(lib_a-mprec.o)
                                                  d:/11.2 2022.02/bin/../lib/gcc/arm-none-eabi/11.2.1/thumb/v7e-m+fp/hard\libc.a(lib_a-dtoa.o)
__mprec_tinytens                                  d:/11.2 2022.02/bin/../lib/gcc/arm-none-eabi/11.2.1/thumb/v7e-m+fp/hard\libc.a(lib_a-mprec.o)
__muldf3                                          d:/11.2 2022.02/bin/../lib/gcc/arm-none-eabi/11.2.1/thumb/v7e-m+fp/hard\libgcc.a(_arm_muldivdf3.o)
                                                  d:/11.2 2022.02/bin/../lib/gcc/arm-none-eabi/11.2.1/thumb/v7e-m+fp/hard\libgcc.a(_arm_muldf3.o)
__multadd                                         d:/11.2 2022.02/bin/../lib/gcc/arm-none-eabi/11.2.1/thumb/v7e-m+fp/hard\libc.a(lib_a-mprec.o)
                                                  d:/11.2 2022.02/bin/../lib/gcc/arm-none-eabi/11.2.1/thumb/v7e-m+fp/hard\libc.a(lib_a-dtoa.o)
__multiply                                        d:/11.2 2022.02/bin/../lib/gcc/arm-none-eabi/11.2.1/thumb/v7e-m+fp/hard\libc.a(lib_a-mprec.o)
                                                  d:/11.2 2022.02/bin/../lib/gcc/arm-none-eabi/11.2.1/thumb/v7e-m+fp/hard\libc.a(lib_a-dtoa.o)
__nedf2                                           d:/11.2 2022.02/bin/../lib/gcc/arm-none-eabi/11.2.1/thumb/v7e-m+fp/hard\libgcc.a(_arm_cmpdf2.o)
__pow5mult                                        d:/11.2 2022.02/bin/../lib/gcc/arm-none-eabi/11.2.1/thumb/v7e-m+fp/hard\libc.a(lib_a-mprec.o)
                                                  d:/11.2 2022.02/bin/../lib/gcc/arm-none-eabi/11.2.1/thumb/v7e-m+fp/hard\libc.a(lib_a-dtoa.o)
__preinit_array_end                               d:/11.2 2022.02/bin/../lib/gcc/arm-none-eabi/11.2.1/thumb/v7e-m+fp/hard\libc.a(lib_a-init.o)
__preinit_array_start                             d:/11.2 2022.02/bin/../lib/gcc/arm-none-eabi/11.2.1/thumb/v7e-m+fp/hard\libc.a(lib_a-init.o)
__ratio                                           d:/11.2 2022.02/bin/../lib/gcc/arm-none-eabi/11.2.1/thumb/v7e-m+fp/hard\libc.a(lib_a-mprec.o)
__register_frame_info                             d:/11.2 2022.02/bin/../lib/gcc/arm-none-eabi/11.2.1/thumb/v7e-m+fp/hard/crtbegin.o
__s2b                                             d:/11.2 2022.02/bin/../lib/gcc/arm-none-eabi/11.2.1/thumb/v7e-m+fp/hard\libc.a(lib_a-mprec.o)
__sclose                                          d:/11.2 2022.02/bin/../lib/gcc/arm-none-eabi/11.2.1/thumb/v7e-m+fp/hard\libc.a(lib_a-stdio.o)
                                                  d:/11.2 2022.02/bin/../lib/gcc/arm-none-eabi/11.2.1/thumb/v7e-m+fp/hard\libc.a(lib_a-findfp.o)
__seofread                                        d:/11.2 2022.02/bin/../lib/gcc/arm-none-eabi/11.2.1/thumb/v7e-m+fp/hard\libc.a(lib_a-stdio.o)
__set_ctype                                       d:/11.2 2022.02/bin/../lib/gcc/arm-none-eabi/11.2.1/thumb/v7e-m+fp/hard\libc.a(lib_a-ctype_.o)
                                                  d:/11.2 2022.02/bin/../lib/gcc/arm-none-eabi/11.2.1/thumb/v7e-m+fp/hard\libc.a(lib_a-locale.o)
__sflush_r                                        d:/11.2 2022.02/bin/../lib/gcc/arm-none-eabi/11.2.1/thumb/v7e-m+fp/hard\libc.a(lib_a-fflush.o)
                                                  d:/11.2 2022.02/bin/../lib/gcc/arm-none-eabi/11.2.1/thumb/v7e-m+fp/hard\libc.a(lib_a-fclose.o)
__sfmoreglue                                      d:/11.2 2022.02/bin/../lib/gcc/arm-none-eabi/11.2.1/thumb/v7e-m+fp/hard\libc.a(lib_a-findfp.o)
__sfp                                             d:/11.2 2022.02/bin/../lib/gcc/arm-none-eabi/11.2.1/thumb/v7e-m+fp/hard\libc.a(lib_a-findfp.o)
__sfp_lock_acquire                                d:/11.2 2022.02/bin/../lib/gcc/arm-none-eabi/11.2.1/thumb/v7e-m+fp/hard\libc.a(lib_a-findfp.o)
                                                  d:/11.2 2022.02/bin/../lib/gcc/arm-none-eabi/11.2.1/thumb/v7e-m+fp/hard\libc.a(lib_a-fclose.o)
__sfp_lock_release                                d:/11.2 2022.02/bin/../lib/gcc/arm-none-eabi/11.2.1/thumb/v7e-m+fp/hard\libc.a(lib_a-findfp.o)
                                                  d:/11.2 2022.02/bin/../lib/gcc/arm-none-eabi/11.2.1/thumb/v7e-m+fp/hard\libc.a(lib_a-fclose.o)
__sfvwrite_r                                      d:/11.2 2022.02/bin/../lib/gcc/arm-none-eabi/11.2.1/thumb/v7e-m+fp/hard\libc.a(lib_a-fvwrite.o)
                                                  d:/11.2 2022.02/bin/../lib/gcc/arm-none-eabi/11.2.1/thumb/v7e-m+fp/hard\libc.a(lib_a-vfiprintf.o)
__sigtramp                                        d:/11.2 2022.02/bin/../lib/gcc/arm-none-eabi/11.2.1/thumb/v7e-m+fp/hard\libc.a(lib_a-signal.o)
__sigtramp_r                                      d:/11.2 2022.02/bin/../lib/gcc/arm-none-eabi/11.2.1/thumb/v7e-m+fp/hard\libc.a(lib_a-signal.o)
__sinit                                           d:/11.2 2022.02/bin/../lib/gcc/arm-none-eabi/11.2.1/thumb/v7e-m+fp/hard\libc.a(lib_a-findfp.o)
                                                  d:/11.2 2022.02/bin/../lib/gcc/arm-none-eabi/11.2.1/thumb/v7e-m+fp/hard\libc.a(lib_a-fclose.o)
                                                  d:/11.2 2022.02/bin/../lib/gcc/arm-none-eabi/11.2.1/thumb/v7e-m+fp/hard\libc.a(lib_a-wbuf.o)
                                                  d:/11.2 2022.02/bin/../lib/gcc/arm-none-eabi/11.2.1/thumb/v7e-m+fp/hard\libc.a(lib_a-fputwc.o)
                                                  d:/11.2 2022.02/bin/../lib/gcc/arm-none-eabi/11.2.1/thumb/v7e-m+fp/hard\libc.a(lib_a-fflush.o)
                                                  d:/11.2 2022.02/bin/../lib/gcc/arm-none-eabi/11.2.1/thumb/v7e-m+fp/hard\libc.a(lib_a-wsetup.o)
                                                  d:/11.2 2022.02/bin/../lib/gcc/arm-none-eabi/11.2.1/thumb/v7e-m+fp/hard\libc.a(lib_a-vfiprintf.o)
__sinit_lock_acquire                              d:/11.2 2022.02/bin/../lib/gcc/arm-none-eabi/11.2.1/thumb/v7e-m+fp/hard\libc.a(lib_a-findfp.o)
__sinit_lock_release                              d:/11.2 2022.02/bin/../lib/gcc/arm-none-eabi/11.2.1/thumb/v7e-m+fp/hard\libc.a(lib_a-findfp.o)
__sjis_mbtowc                                     d:/11.2 2022.02/bin/../lib/gcc/arm-none-eabi/11.2.1/thumb/v7e-m+fp/hard\libc.a(lib_a-mbtowc_r.o)
                                                  d:/11.2 2022.02/bin/../lib/gcc/arm-none-eabi/11.2.1/thumb/v7e-m+fp/hard\libc.a(lib_a-locale.o)
__sjis_wctomb                                     d:/11.2 2022.02/bin/../lib/gcc/arm-none-eabi/11.2.1/thumb/v7e-m+fp/hard\libc.a(lib_a-wctomb_r.o)
                                                  d:/11.2 2022.02/bin/../lib/gcc/arm-none-eabi/11.2.1/thumb/v7e-m+fp/hard\libc.a(lib_a-locale.o)
__smakebuf_r                                      d:/11.2 2022.02/bin/../lib/gcc/arm-none-eabi/11.2.1/thumb/v7e-m+fp/hard\libc.a(lib_a-makebuf.o)
                                                  d:/11.2 2022.02/bin/../lib/gcc/arm-none-eabi/11.2.1/thumb/v7e-m+fp/hard\libc.a(lib_a-wsetup.o)
__sprint_r                                        d:/11.2 2022.02/bin/../lib/gcc/arm-none-eabi/11.2.1/thumb/v7e-m+fp/hard\libc.a(lib_a-vfiprintf.o)
__sread                                           d:/11.2 2022.02/bin/../lib/gcc/arm-none-eabi/11.2.1/thumb/v7e-m+fp/hard\libc.a(lib_a-stdio.o)
                                                  d:/11.2 2022.02/bin/../lib/gcc/arm-none-eabi/11.2.1/thumb/v7e-m+fp/hard\libc.a(lib_a-findfp.o)
__sseek                                           d:/11.2 2022.02/bin/../lib/gcc/arm-none-eabi/11.2.1/thumb/v7e-m+fp/hard\libc.a(lib_a-stdio.o)
                                                  d:/11.2 2022.02/bin/../lib/gcc/arm-none-eabi/11.2.1/thumb/v7e-m+fp/hard\libc.a(lib_a-findfp.o)
__ssprint_r                                       d:/11.2 2022.02/bin/../lib/gcc/arm-none-eabi/11.2.1/thumb/v7e-m+fp/hard\libc.a(lib_a-svfiprintf.o)
                                                  d:/11.2 2022.02/bin/../lib/gcc/arm-none-eabi/11.2.1/thumb/v7e-m+fp/hard\libc.a(lib_a-svfprintf.o)
__stack                                           d:/11.2 2022.02/bin/../lib/gcc/arm-none-eabi/11.2.1/thumb/v7e-m+fp/hard/crt0.o
__subdf3                                          d:/11.2 2022.02/bin/../lib/gcc/arm-none-eabi/11.2.1/thumb/v7e-m+fp/hard\libgcc.a(_arm_addsubdf3.o)
__swbuf                                           d:/11.2 2022.02/bin/../lib/gcc/arm-none-eabi/11.2.1/thumb/v7e-m+fp/hard\libc.a(lib_a-wbuf.o)
__swbuf_r                                         d:/11.2 2022.02/bin/../lib/gcc/arm-none-eabi/11.2.1/thumb/v7e-m+fp/hard\libc.a(lib_a-wbuf.o)
                                                  d:/11.2 2022.02/bin/../lib/gcc/arm-none-eabi/11.2.1/thumb/v7e-m+fp/hard\libc.a(lib_a-fputwc.o)
__swhatbuf_r                                      d:/11.2 2022.02/bin/../lib/gcc/arm-none-eabi/11.2.1/thumb/v7e-m+fp/hard\libc.a(lib_a-makebuf.o)
__swrite                                          d:/11.2 2022.02/bin/../lib/gcc/arm-none-eabi/11.2.1/thumb/v7e-m+fp/hard\libc.a(lib_a-stdio.o)
                                                  d:/11.2 2022.02/bin/../lib/gcc/arm-none-eabi/11.2.1/thumb/v7e-m+fp/hard\libc.a(lib_a-findfp.o)
__swsetup_r                                       d:/11.2 2022.02/bin/../lib/gcc/arm-none-eabi/11.2.1/thumb/v7e-m+fp/hard\libc.a(lib_a-wsetup.o)
                                                  d:/11.2 2022.02/bin/../lib/gcc/arm-none-eabi/11.2.1/thumb/v7e-m+fp/hard\libc.a(lib_a-wbuf.o)
                                                  d:/11.2 2022.02/bin/../lib/gcc/arm-none-eabi/11.2.1/thumb/v7e-m+fp/hard\libc.a(lib_a-fvwrite.o)
                                                  d:/11.2 2022.02/bin/../lib/gcc/arm-none-eabi/11.2.1/thumb/v7e-m+fp/hard\libc.a(lib_a-vfiprintf.o)
__udivmoddi4                                      d:/11.2 2022.02/bin/../lib/gcc/arm-none-eabi/11.2.1/thumb/v7e-m+fp/hard\libgcc.a(_udivmoddi4.o)
                                                  d:/11.2 2022.02/bin/../lib/gcc/arm-none-eabi/11.2.1/thumb/v7e-m+fp/hard\libgcc.a(_aeabi_uldivmod.o)
__ulp                                             d:/11.2 2022.02/bin/../lib/gcc/arm-none-eabi/11.2.1/thumb/v7e-m+fp/hard\libc.a(lib_a-mprec.o)
__unorddf2                                        d:/11.2 2022.02/bin/../lib/gcc/arm-none-eabi/11.2.1/thumb/v7e-m+fp/hard\libgcc.a(_arm_unorddf2.o)
__utf8_mbtowc                                     d:/11.2 2022.02/bin/../lib/gcc/arm-none-eabi/11.2.1/thumb/v7e-m+fp/hard\libc.a(lib_a-mbtowc_r.o)
                                                  d:/11.2 2022.02/bin/../lib/gcc/arm-none-eabi/11.2.1/thumb/v7e-m+fp/hard\libc.a(lib_a-locale.o)
__utf8_wctomb                                     d:/11.2 2022.02/bin/../lib/gcc/arm-none-eabi/11.2.1/thumb/v7e-m+fp/hard\libc.a(lib_a-wctomb_r.o)
                                                  d:/11.2 2022.02/bin/../lib/gcc/arm-none-eabi/11.2.1/thumb/v7e-m+fp/hard\libc.a(lib_a-locale.o)
_calloc_r                                         d:/11.2 2022.02/bin/../lib/gcc/arm-none-eabi/11.2.1/thumb/v7e-m+fp/hard\libc.a(lib_a-callocr.o)
                                                  d:/11.2 2022.02/bin/../lib/gcc/arm-none-eabi/11.2.1/thumb/v7e-m+fp/hard\libc.a(lib_a-mprec.o)
_cleanup                                          d:/11.2 2022.02/bin/../lib/gcc/arm-none-eabi/11.2.1/thumb/v7e-m+fp/hard\libc.a(lib_a-findfp.o)
_cleanup_r                                        d:/11.2 2022.02/bin/../lib/gcc/arm-none-eabi/11.2.1/thumb/v7e-m+fp/hard\libc.a(lib_a-findfp.o)
                                                  d:/11.2 2022.02/bin/../lib/gcc/arm-none-eabi/11.2.1/thumb/v7e-m+fp/hard\libc.a(lib_a-makebuf.o)
_close                                            d:/11.2 2022.02/bin/../lib/gcc/arm-none-eabi/11.2.1/thumb/v7e-m+fp/hard\libnosys.a(close.o)
                                                  d:/11.2 2022.02/bin/../lib/gcc/arm-none-eabi/11.2.1/thumb/v7e-m+fp/hard\libc.a(lib_a-closer.o)
_close_r                                          d:/11.2 2022.02/bin/../lib/gcc/arm-none-eabi/11.2.1/thumb/v7e-m+fp/hard\libc.a(lib_a-closer.o)
                                                  d:/11.2 2022.02/bin/../lib/gcc/arm-none-eabi/11.2.1/thumb/v7e-m+fp/hard\libc.a(lib_a-stdio.o)
_ctype_                                           d:/11.2 2022.02/bin/../lib/gcc/arm-none-eabi/11.2.1/thumb/v7e-m+fp/hard\libc.a(lib_a-ctype_.o)
                                                  d:/11.2 2022.02/bin/../lib/gcc/arm-none-eabi/11.2.1/thumb/v7e-m+fp/hard\libc.a(lib_a-strtol.o)
                                                  d:/11.2 2022.02/bin/../lib/gcc/arm-none-eabi/11.2.1/thumb/v7e-m+fp/hard\libc.a(lib_a-strncasecmp.o)
                                                  d:/11.2 2022.02/bin/../lib/gcc/arm-none-eabi/11.2.1/thumb/v7e-m+fp/hard\libc.a(lib_a-strcasecmp.o)
                                                  d:/11.2 2022.02/bin/../lib/gcc/arm-none-eabi/11.2.1/thumb/v7e-m+fp/hard\libc.a(lib_a-locale.o)
_dtoa_r                                           d:/11.2 2022.02/bin/../lib/gcc/arm-none-eabi/11.2.1/thumb/v7e-m+fp/hard\libc.a(lib_a-dtoa.o)
                                                  d:/11.2 2022.02/bin/../lib/gcc/arm-none-eabi/11.2.1/thumb/v7e-m+fp/hard\libc.a(lib_a-svfprintf.o)
_ebss                                             build/startup_stm32f407xx.o
_edata                                            build/startup_stm32f407xx.o
_estack                                           build/startup_stm32f407xx.o
_exit                                             d:/11.2 2022.02/bin/../lib/gcc/arm-none-eabi/11.2.1/thumb/v7e-m+fp/hard\libnosys.a(_exit.o)
                                                  d:/11.2 2022.02/bin/../lib/gcc/arm-none-eabi/11.2.1/thumb/v7e-m+fp/hard\libc.a(lib_a-abort.o)
                                                  d:/11.2 2022.02/bin/../lib/gcc/arm-none-eabi/11.2.1/thumb/v7e-m+fp/hard\libc.a(lib_a-exit.o)
_fclose_r                                         d:/11.2 2022.02/bin/../lib/gcc/arm-none-eabi/11.2.1/thumb/v7e-m+fp/hard\libc.a(lib_a-fclose.o)
                                                  d:/11.2 2022.02/bin/../lib/gcc/arm-none-eabi/11.2.1/thumb/v7e-m+fp/hard\libc.a(lib_a-findfp.o)
_fflush_r                                         d:/11.2 2022.02/bin/../lib/gcc/arm-none-eabi/11.2.1/thumb/v7e-m+fp/hard\libc.a(lib_a-fflush.o)
                                                  d:/11.2 2022.02/bin/../lib/gcc/arm-none-eabi/11.2.1/thumb/v7e-m+fp/hard\libc.a(lib_a-wbuf.o)
                                                  d:/11.2 2022.02/bin/../lib/gcc/arm-none-eabi/11.2.1/thumb/v7e-m+fp/hard\libc.a(lib_a-fvwrite.o)
                                                  d:/11.2 2022.02/bin/../lib/gcc/arm-none-eabi/11.2.1/thumb/v7e-m+fp/hard\libc.a(lib_a-vfiprintf.o)
_findenv_r                                        d:/11.2 2022.02/bin/../lib/gcc/arm-none-eabi/11.2.1/thumb/v7e-m+fp/hard\libc.a(lib_a-getenv_r.o)
_fini                                             d:/11.2 2022.02/bin/../lib/gcc/arm-none-eabi/11.2.1/thumb/v7e-m+fp/hard/crti.o
_fiprintf_r                                       d:/11.2 2022.02/bin/../lib/gcc/arm-none-eabi/11.2.1/thumb/v7e-m+fp/hard\libc.a(lib_a-fiprintf.o)
_fputwc_r                                         d:/11.2 2022.02/bin/../lib/gcc/arm-none-eabi/11.2.1/thumb/v7e-m+fp/hard\libc.a(lib_a-fputwc.o)
                                                  d:/11.2 2022.02/bin/../lib/gcc/arm-none-eabi/11.2.1/thumb/v7e-m+fp/hard\libc.a(lib_a-vfiprintf.o)
_free_r                                           d:/11.2 2022.02/bin/../lib/gcc/arm-none-eabi/11.2.1/thumb/v7e-m+fp/hard\libc.a(lib_a-freer.o)
                                                  d:/11.2 2022.02/bin/../lib/gcc/arm-none-eabi/11.2.1/thumb/v7e-m+fp/hard\libc.a(lib_a-fclose.o)
                                                  d:/11.2 2022.02/bin/../lib/gcc/arm-none-eabi/11.2.1/thumb/v7e-m+fp/hard\libc.a(lib_a-fvwrite.o)
                                                  d:/11.2 2022.02/bin/../lib/gcc/arm-none-eabi/11.2.1/thumb/v7e-m+fp/hard\libc.a(lib_a-fflush.o)
                                                  d:/11.2 2022.02/bin/../lib/gcc/arm-none-eabi/11.2.1/thumb/v7e-m+fp/hard\libc.a(lib_a-wsetup.o)
                                                  d:/11.2 2022.02/bin/../lib/gcc/arm-none-eabi/11.2.1/thumb/v7e-m+fp/hard\libc.a(lib_a-vfiprintf.o)
                                                  d:/11.2 2022.02/bin/../lib/gcc/arm-none-eabi/11.2.1/thumb/v7e-m+fp/hard\libc.a(lib_a-reent.o)
                                                  d:/11.2 2022.02/bin/../lib/gcc/arm-none-eabi/11.2.1/thumb/v7e-m+fp/hard\libc.a(lib_a-reallocr.o)
                                                  d:/11.2 2022.02/bin/../lib/gcc/arm-none-eabi/11.2.1/thumb/v7e-m+fp/hard\libc.a(lib_a-svfiprintf.o)
                                                  d:/11.2 2022.02/bin/../lib/gcc/arm-none-eabi/11.2.1/thumb/v7e-m+fp/hard\libc.a(lib_a-mallocr.o)
                                                  d:/11.2 2022.02/bin/../lib/gcc/arm-none-eabi/11.2.1/thumb/v7e-m+fp/hard\libc.a(lib_a-svfprintf.o)
_fstat                                            d:/11.2 2022.02/bin/../lib/gcc/arm-none-eabi/11.2.1/thumb/v7e-m+fp/hard\libnosys.a(fstat.o)
                                                  d:/11.2 2022.02/bin/../lib/gcc/arm-none-eabi/11.2.1/thumb/v7e-m+fp/hard\libc.a(lib_a-fstatr.o)
_fstat_r                                          d:/11.2 2022.02/bin/../lib/gcc/arm-none-eabi/11.2.1/thumb/v7e-m+fp/hard\libc.a(lib_a-fstatr.o)
                                                  d:/11.2 2022.02/bin/../lib/gcc/arm-none-eabi/11.2.1/thumb/v7e-m+fp/hard\libc.a(lib_a-makebuf.o)
_fwalk                                            d:/11.2 2022.02/bin/../lib/gcc/arm-none-eabi/11.2.1/thumb/v7e-m+fp/hard\libc.a(lib_a-fwalk.o)
                                                  d:/11.2 2022.02/bin/../lib/gcc/arm-none-eabi/11.2.1/thumb/v7e-m+fp/hard\libc.a(lib_a-findfp.o)
_fwalk_reent                                      d:/11.2 2022.02/bin/../lib/gcc/arm-none-eabi/11.2.1/thumb/v7e-m+fp/hard\libc.a(lib_a-fwalk.o)
                                                  d:/11.2 2022.02/bin/../lib/gcc/arm-none-eabi/11.2.1/thumb/v7e-m+fp/hard\libc.a(lib_a-findfp.o)
                                                  d:/11.2 2022.02/bin/../lib/gcc/arm-none-eabi/11.2.1/thumb/v7e-m+fp/hard\libc.a(lib_a-fflush.o)
_getenv_r                                         d:/11.2 2022.02/bin/../lib/gcc/arm-none-eabi/11.2.1/thumb/v7e-m+fp/hard\libc.a(lib_a-getenv_r.o)
                                                  d:/11.2 2022.02/bin/../lib/gcc/arm-none-eabi/11.2.1/thumb/v7e-m+fp/hard\libc.a(lib_a-locale.o)
_getpid                                           d:/11.2 2022.02/bin/../lib/gcc/arm-none-eabi/11.2.1/thumb/v7e-m+fp/hard\libnosys.a(getpid.o)
                                                  d:/11.2 2022.02/bin/../lib/gcc/arm-none-eabi/11.2.1/thumb/v7e-m+fp/hard\libc.a(lib_a-signalr.o)
_getpid_r                                         d:/11.2 2022.02/bin/../lib/gcc/arm-none-eabi/11.2.1/thumb/v7e-m+fp/hard\libc.a(lib_a-signalr.o)
                                                  d:/11.2 2022.02/bin/../lib/gcc/arm-none-eabi/11.2.1/thumb/v7e-m+fp/hard\libc.a(lib_a-signal.o)
_global_impure_ptr                                d:/11.2 2022.02/bin/../lib/gcc/arm-none-eabi/11.2.1/thumb/v7e-m+fp/hard\libc.a(lib_a-impure.o)
                                                  d:/11.2 2022.02/bin/../lib/gcc/arm-none-eabi/11.2.1/thumb/v7e-m+fp/hard\libc.a(lib_a-findfp.o)
                                                  d:/11.2 2022.02/bin/../lib/gcc/arm-none-eabi/11.2.1/thumb/v7e-m+fp/hard\libc.a(lib_a-fflush.o)
                                                  d:/11.2 2022.02/bin/../lib/gcc/arm-none-eabi/11.2.1/thumb/v7e-m+fp/hard\libc.a(lib_a-__call_atexit.o)
                                                  d:/11.2 2022.02/bin/../lib/gcc/arm-none-eabi/11.2.1/thumb/v7e-m+fp/hard\libc.a(lib_a-exit.o)
_impure_ptr                                       d:/11.2 2022.02/bin/../lib/gcc/arm-none-eabi/11.2.1/thumb/v7e-m+fp/hard\libc.a(lib_a-impure.o)
                                                  d:/11.2 2022.02/bin/../lib/gcc/arm-none-eabi/11.2.1/thumb/v7e-m+fp/hard\libc.a(lib_a-fclose.o)
                                                  d:/11.2 2022.02/bin/../lib/gcc/arm-none-eabi/11.2.1/thumb/v7e-m+fp/hard\libc.a(lib_a-wbuf.o)
                                                  d:/11.2 2022.02/bin/../lib/gcc/arm-none-eabi/11.2.1/thumb/v7e-m+fp/hard\libc.a(lib_a-signal.o)
                                                  d:/11.2 2022.02/bin/../lib/gcc/arm-none-eabi/11.2.1/thumb/v7e-m+fp/hard\libc.a(lib_a-fputwc.o)
                                                  d:/11.2 2022.02/bin/../lib/gcc/arm-none-eabi/11.2.1/thumb/v7e-m+fp/hard\libc.a(lib_a-findfp.o)
                                                  d:/11.2 2022.02/bin/../lib/gcc/arm-none-eabi/11.2.1/thumb/v7e-m+fp/hard\libc.a(lib_a-fflush.o)
                                                  d:/11.2 2022.02/bin/../lib/gcc/arm-none-eabi/11.2.1/thumb/v7e-m+fp/hard\libc.a(lib_a-wsetup.o)
                                                  d:/11.2 2022.02/bin/../lib/gcc/arm-none-eabi/11.2.1/thumb/v7e-m+fp/hard\libc.a(lib_a-vfiprintf.o)
                                                  d:/11.2 2022.02/bin/../lib/gcc/arm-none-eabi/11.2.1/thumb/v7e-m+fp/hard\libc.a(lib_a-reent.o)
                                                  d:/11.2 2022.02/bin/../lib/gcc/arm-none-eabi/11.2.1/thumb/v7e-m+fp/hard\libc.a(lib_a-fiprintf.o)
                                                  d:/11.2 2022.02/bin/../lib/gcc/arm-none-eabi/11.2.1/thumb/v7e-m+fp/hard\libc.a(lib_a-errno.o)
                                                  d:/11.2 2022.02/bin/../lib/gcc/arm-none-eabi/11.2.1/thumb/v7e-m+fp/hard\libc.a(lib_a-assert.o)
                                                  d:/11.2 2022.02/bin/../lib/gcc/arm-none-eabi/11.2.1/thumb/v7e-m+fp/hard\libc.a(lib_a-wcsnrtombs.o)
                                                  d:/11.2 2022.02/bin/../lib/gcc/arm-none-eabi/11.2.1/thumb/v7e-m+fp/hard\libc.a(lib_a-strtol.o)
                                                  d:/11.2 2022.02/bin/../lib/gcc/arm-none-eabi/11.2.1/thumb/v7e-m+fp/hard\libc.a(lib_a-locale.o)
                                                  d:/11.2 2022.02/bin/../lib/gcc/arm-none-eabi/11.2.1/thumb/v7e-m+fp/hard\libc.a(lib_a-wcsrtombs.o)
                                                  d:/11.2 2022.02/bin/../lib/gcc/arm-none-eabi/11.2.1/thumb/v7e-m+fp/hard\libc.a(lib_a-wcrtomb.o)
                                                  d:/11.2 2022.02/bin/../lib/gcc/arm-none-eabi/11.2.1/thumb/v7e-m+fp/hard\libc.a(lib_a-vsprintf.o)
_init                                             d:/11.2 2022.02/bin/../lib/gcc/arm-none-eabi/11.2.1/thumb/v7e-m+fp/hard/crti.o
                                                  d:/11.2 2022.02/bin/../lib/gcc/arm-none-eabi/11.2.1/thumb/v7e-m+fp/hard\libc.a(lib_a-init.o)
_init_signal                                      d:/11.2 2022.02/bin/../lib/gcc/arm-none-eabi/11.2.1/thumb/v7e-m+fp/hard\libc.a(lib_a-signal.o)
_init_signal_r                                    d:/11.2 2022.02/bin/../lib/gcc/arm-none-eabi/11.2.1/thumb/v7e-m+fp/hard\libc.a(lib_a-signal.o)
_isatty                                           d:/11.2 2022.02/bin/../lib/gcc/arm-none-eabi/11.2.1/thumb/v7e-m+fp/hard\libnosys.a(isatty.o)
                                                  d:/11.2 2022.02/bin/../lib/gcc/arm-none-eabi/11.2.1/thumb/v7e-m+fp/hard\libc.a(lib_a-isattyr.o)
_isatty_r                                         d:/11.2 2022.02/bin/../lib/gcc/arm-none-eabi/11.2.1/thumb/v7e-m+fp/hard\libc.a(lib_a-isattyr.o)
                                                  d:/11.2 2022.02/bin/../lib/gcc/arm-none-eabi/11.2.1/thumb/v7e-m+fp/hard\libc.a(lib_a-makebuf.o)
_kill                                             d:/11.2 2022.02/bin/../lib/gcc/arm-none-eabi/11.2.1/thumb/v7e-m+fp/hard\libnosys.a(kill.o)
                                                  d:/11.2 2022.02/bin/../lib/gcc/arm-none-eabi/11.2.1/thumb/v7e-m+fp/hard\libc.a(lib_a-signalr.o)
_kill_r                                           d:/11.2 2022.02/bin/../lib/gcc/arm-none-eabi/11.2.1/thumb/v7e-m+fp/hard\libc.a(lib_a-signalr.o)
                                                  d:/11.2 2022.02/bin/../lib/gcc/arm-none-eabi/11.2.1/thumb/v7e-m+fp/hard\libc.a(lib_a-signal.o)
_localeconv_r                                     d:/11.2 2022.02/bin/../lib/gcc/arm-none-eabi/11.2.1/thumb/v7e-m+fp/hard\libc.a(lib_a-localeconv.o)
                                                  d:/11.2 2022.02/bin/../lib/gcc/arm-none-eabi/11.2.1/thumb/v7e-m+fp/hard\libc.a(lib_a-vfiprintf.o)
                                                  d:/11.2 2022.02/bin/../lib/gcc/arm-none-eabi/11.2.1/thumb/v7e-m+fp/hard\libc.a(lib_a-svfiprintf.o)
                                                  d:/11.2 2022.02/bin/../lib/gcc/arm-none-eabi/11.2.1/thumb/v7e-m+fp/hard\libc.a(lib_a-svfprintf.o)
_lseek                                            d:/11.2 2022.02/bin/../lib/gcc/arm-none-eabi/11.2.1/thumb/v7e-m+fp/hard\libnosys.a(lseek.o)
                                                  d:/11.2 2022.02/bin/../lib/gcc/arm-none-eabi/11.2.1/thumb/v7e-m+fp/hard\libc.a(lib_a-lseekr.o)
_lseek_r                                          d:/11.2 2022.02/bin/../lib/gcc/arm-none-eabi/11.2.1/thumb/v7e-m+fp/hard\libc.a(lib_a-lseekr.o)
                                                  d:/11.2 2022.02/bin/../lib/gcc/arm-none-eabi/11.2.1/thumb/v7e-m+fp/hard\libc.a(lib_a-stdio.o)
_mainCRTStartup                                   d:/11.2 2022.02/bin/../lib/gcc/arm-none-eabi/11.2.1/thumb/v7e-m+fp/hard/crt0.o
_malloc_r                                         d:/11.2 2022.02/bin/../lib/gcc/arm-none-eabi/11.2.1/thumb/v7e-m+fp/hard\libc.a(lib_a-mallocr.o)
                                                  d:/11.2 2022.02/bin/../lib/gcc/arm-none-eabi/11.2.1/thumb/v7e-m+fp/hard\libc.a(lib_a-signal.o)
                                                  d:/11.2 2022.02/bin/../lib/gcc/arm-none-eabi/11.2.1/thumb/v7e-m+fp/hard\libc.a(lib_a-makebuf.o)
                                                  d:/11.2 2022.02/bin/../lib/gcc/arm-none-eabi/11.2.1/thumb/v7e-m+fp/hard\libc.a(lib_a-fvwrite.o)
                                                  d:/11.2 2022.02/bin/../lib/gcc/arm-none-eabi/11.2.1/thumb/v7e-m+fp/hard\libc.a(lib_a-findfp.o)
                                                  d:/11.2 2022.02/bin/../lib/gcc/arm-none-eabi/11.2.1/thumb/v7e-m+fp/hard\libc.a(lib_a-vfiprintf.o)
                                                  d:/11.2 2022.02/bin/../lib/gcc/arm-none-eabi/11.2.1/thumb/v7e-m+fp/hard\libc.a(lib_a-reallocr.o)
                                                  d:/11.2 2022.02/bin/../lib/gcc/arm-none-eabi/11.2.1/thumb/v7e-m+fp/hard\libc.a(lib_a-callocr.o)
                                                  d:/11.2 2022.02/bin/../lib/gcc/arm-none-eabi/11.2.1/thumb/v7e-m+fp/hard\libc.a(lib_a-svfiprintf.o)
                                                  d:/11.2 2022.02/bin/../lib/gcc/arm-none-eabi/11.2.1/thumb/v7e-m+fp/hard\libc.a(lib_a-svfprintf.o)
_malloc_trim_r                                    d:/11.2 2022.02/bin/../lib/gcc/arm-none-eabi/11.2.1/thumb/v7e-m+fp/hard\libc.a(lib_a-freer.o)
_mbtowc_r                                         d:/11.2 2022.02/bin/../lib/gcc/arm-none-eabi/11.2.1/thumb/v7e-m+fp/hard\libc.a(lib_a-mbtowc_r.o)
_mprec_log10                                      d:/11.2 2022.02/bin/../lib/gcc/arm-none-eabi/11.2.1/thumb/v7e-m+fp/hard\libc.a(lib_a-mprec.o)
_raise_r                                          d:/11.2 2022.02/bin/../lib/gcc/arm-none-eabi/11.2.1/thumb/v7e-m+fp/hard\libc.a(lib_a-signal.o)
_read                                             d:/11.2 2022.02/bin/../lib/gcc/arm-none-eabi/11.2.1/thumb/v7e-m+fp/hard\libnosys.a(read.o)
                                                  d:/11.2 2022.02/bin/../lib/gcc/arm-none-eabi/11.2.1/thumb/v7e-m+fp/hard\libc.a(lib_a-readr.o)
_read_r                                           d:/11.2 2022.02/bin/../lib/gcc/arm-none-eabi/11.2.1/thumb/v7e-m+fp/hard\libc.a(lib_a-readr.o)
                                                  d:/11.2 2022.02/bin/../lib/gcc/arm-none-eabi/11.2.1/thumb/v7e-m+fp/hard\libc.a(lib_a-stdio.o)
_realloc_r                                        d:/11.2 2022.02/bin/../lib/gcc/arm-none-eabi/11.2.1/thumb/v7e-m+fp/hard\libc.a(lib_a-reallocr.o)
                                                  d:/11.2 2022.02/bin/../lib/gcc/arm-none-eabi/11.2.1/thumb/v7e-m+fp/hard\libc.a(lib_a-fvwrite.o)
                                                  d:/11.2 2022.02/bin/../lib/gcc/arm-none-eabi/11.2.1/thumb/v7e-m+fp/hard\libc.a(lib_a-svfiprintf.o)
_reclaim_reent                                    d:/11.2 2022.02/bin/../lib/gcc/arm-none-eabi/11.2.1/thumb/v7e-m+fp/hard\libc.a(lib_a-reent.o)
_sbrk                                             d:/11.2 2022.02/bin/../lib/gcc/arm-none-eabi/11.2.1/thumb/v7e-m+fp/hard\libnosys.a(sbrk.o)
                                                  d:/11.2 2022.02/bin/../lib/gcc/arm-none-eabi/11.2.1/thumb/v7e-m+fp/hard\libc.a(lib_a-sbrkr.o)
_sbrk_r                                           d:/11.2 2022.02/bin/../lib/gcc/arm-none-eabi/11.2.1/thumb/v7e-m+fp/hard\libc.a(lib_a-sbrkr.o)
                                                  d:/11.2 2022.02/bin/../lib/gcc/arm-none-eabi/11.2.1/thumb/v7e-m+fp/hard\libc.a(lib_a-mallocr.o)
                                                  d:/11.2 2022.02/bin/../lib/gcc/arm-none-eabi/11.2.1/thumb/v7e-m+fp/hard\libc.a(lib_a-freer.o)
_sbss                                             build/startup_stm32f407xx.o
_sdata                                            build/startup_stm32f407xx.o
_setlocale_r                                      d:/11.2 2022.02/bin/../lib/gcc/arm-none-eabi/11.2.1/thumb/v7e-m+fp/hard\libc.a(lib_a-locale.o)
_sidata                                           build/startup_stm32f407xx.o
_signal_r                                         d:/11.2 2022.02/bin/../lib/gcc/arm-none-eabi/11.2.1/thumb/v7e-m+fp/hard\libc.a(lib_a-signal.o)
_stack_init                                       d:/11.2 2022.02/bin/../lib/gcc/arm-none-eabi/11.2.1/thumb/v7e-m+fp/hard/crt0.o
_start                                            d:/11.2 2022.02/bin/../lib/gcc/arm-none-eabi/11.2.1/thumb/v7e-m+fp/hard/crt0.o
_strtol_r                                         d:/11.2 2022.02/bin/../lib/gcc/arm-none-eabi/11.2.1/thumb/v7e-m+fp/hard\libc.a(lib_a-strtol.o)
_svfiprintf_r                                     d:/11.2 2022.02/bin/../lib/gcc/arm-none-eabi/11.2.1/thumb/v7e-m+fp/hard\libc.a(lib_a-svfiprintf.o)
_svfprintf_r                                      d:/11.2 2022.02/bin/../lib/gcc/arm-none-eabi/11.2.1/thumb/v7e-m+fp/hard\libc.a(lib_a-svfprintf.o)
                                                  d:/11.2 2022.02/bin/../lib/gcc/arm-none-eabi/11.2.1/thumb/v7e-m+fp/hard\libc.a(lib_a-vsprintf.o)
_vfiprintf_r                                      d:/11.2 2022.02/bin/../lib/gcc/arm-none-eabi/11.2.1/thumb/v7e-m+fp/hard\libc.a(lib_a-vfiprintf.o)
                                                  d:/11.2 2022.02/bin/../lib/gcc/arm-none-eabi/11.2.1/thumb/v7e-m+fp/hard\libc.a(lib_a-fiprintf.o)
_vsprintf_r                                       d:/11.2 2022.02/bin/../lib/gcc/arm-none-eabi/11.2.1/thumb/v7e-m+fp/hard\libc.a(lib_a-vsprintf.o)
_wcrtomb_r                                        d:/11.2 2022.02/bin/../lib/gcc/arm-none-eabi/11.2.1/thumb/v7e-m+fp/hard\libc.a(lib_a-wcrtomb.o)
                                                  d:/11.2 2022.02/bin/../lib/gcc/arm-none-eabi/11.2.1/thumb/v7e-m+fp/hard\libc.a(lib_a-fputwc.o)
                                                  d:/11.2 2022.02/bin/../lib/gcc/arm-none-eabi/11.2.1/thumb/v7e-m+fp/hard\libc.a(lib_a-vfiprintf.o)
                                                  d:/11.2 2022.02/bin/../lib/gcc/arm-none-eabi/11.2.1/thumb/v7e-m+fp/hard\libc.a(lib_a-svfiprintf.o)
                                                  d:/11.2 2022.02/bin/../lib/gcc/arm-none-eabi/11.2.1/thumb/v7e-m+fp/hard\libc.a(lib_a-svfprintf.o)
_wcsnrtombs_l                                     d:/11.2 2022.02/bin/../lib/gcc/arm-none-eabi/11.2.1/thumb/v7e-m+fp/hard\libc.a(lib_a-wcsnrtombs.o)
_wcsnrtombs_r                                     d:/11.2 2022.02/bin/../lib/gcc/arm-none-eabi/11.2.1/thumb/v7e-m+fp/hard\libc.a(lib_a-wcsnrtombs.o)
                                                  d:/11.2 2022.02/bin/../lib/gcc/arm-none-eabi/11.2.1/thumb/v7e-m+fp/hard\libc.a(lib_a-wcsrtombs.o)
_wcsrtombs_r                                      d:/11.2 2022.02/bin/../lib/gcc/arm-none-eabi/11.2.1/thumb/v7e-m+fp/hard\libc.a(lib_a-wcsrtombs.o)
                                                  d:/11.2 2022.02/bin/../lib/gcc/arm-none-eabi/11.2.1/thumb/v7e-m+fp/hard\libc.a(lib_a-vfiprintf.o)
                                                  d:/11.2 2022.02/bin/../lib/gcc/arm-none-eabi/11.2.1/thumb/v7e-m+fp/hard\libc.a(lib_a-svfiprintf.o)
                                                  d:/11.2 2022.02/bin/../lib/gcc/arm-none-eabi/11.2.1/thumb/v7e-m+fp/hard\libc.a(lib_a-svfprintf.o)
_wctomb_r                                         d:/11.2 2022.02/bin/../lib/gcc/arm-none-eabi/11.2.1/thumb/v7e-m+fp/hard\libc.a(lib_a-wctomb_r.o)
_write                                            d:/11.2 2022.02/bin/../lib/gcc/arm-none-eabi/11.2.1/thumb/v7e-m+fp/hard\libnosys.a(write.o)
                                                  d:/11.2 2022.02/bin/../lib/gcc/arm-none-eabi/11.2.1/thumb/v7e-m+fp/hard\libc.a(lib_a-writer.o)
_write_r                                          d:/11.2 2022.02/bin/../lib/gcc/arm-none-eabi/11.2.1/thumb/v7e-m+fp/hard\libc.a(lib_a-writer.o)
                                                  d:/11.2 2022.02/bin/../lib/gcc/arm-none-eabi/11.2.1/thumb/v7e-m+fp/hard\libc.a(lib_a-stdio.o)
abort                                             d:/11.2 2022.02/bin/../lib/gcc/arm-none-eabi/11.2.1/thumb/v7e-m+fp/hard\libc.a(lib_a-abort.o)
                                                  d:/11.2 2022.02/bin/../lib/gcc/arm-none-eabi/11.2.1/thumb/v7e-m+fp/hard\libc.a(lib_a-assert.o)
atexit                                            d:/11.2 2022.02/bin/../lib/gcc/arm-none-eabi/11.2.1/thumb/v7e-m+fp/hard/crt0.o
calculate_vel                                     build/inverse_kinematics.o
car_inv_kinematics                                build/inverse_kinematics.o
car_kinematics                                    build/inverse_kinematics.o
ceil                                              d:/11.2 2022.02/bin/../lib/gcc/arm-none-eabi/11.2.1/thumb/v7e-m+fp/hard\libm.a(lib_a-s_ceil.o)
                                                  build/pid.o
cleanup_glue                                      d:/11.2 2022.02/bin/../lib/gcc/arm-none-eabi/11.2.1/thumb/v7e-m+fp/hard\libc.a(lib_a-reent.o)
d_rule                                            build/pid.o
end                                               d:/11.2 2022.02/bin/../lib/gcc/arm-none-eabi/11.2.1/thumb/v7e-m+fp/hard\libnosys.a(sbrk.o)
environ                                           d:/11.2 2022.02/bin/../lib/gcc/arm-none-eabi/11.2.1/thumb/v7e-m+fp/hard\libc.a(lib_a-environ.o)
                                                  d:/11.2 2022.02/bin/../lib/gcc/arm-none-eabi/11.2.1/thumb/v7e-m+fp/hard\libc.a(lib_a-getenv_r.o)
errno                                             d:/11.2 2022.02/bin/../lib/gcc/arm-none-eabi/11.2.1/thumb/v7e-m+fp/hard\libc.a(lib_a-reent.o)
                                                  d:/11.2 2022.02/bin/../lib/gcc/arm-none-eabi/11.2.1/thumb/v7e-m+fp/hard\libnosys.a(write.o)
                                                  d:/11.2 2022.02/bin/../lib/gcc/arm-none-eabi/11.2.1/thumb/v7e-m+fp/hard\libnosys.a(read.o)
                                                  d:/11.2 2022.02/bin/../lib/gcc/arm-none-eabi/11.2.1/thumb/v7e-m+fp/hard\libnosys.a(lseek.o)
                                                  d:/11.2 2022.02/bin/../lib/gcc/arm-none-eabi/11.2.1/thumb/v7e-m+fp/hard\libnosys.a(kill.o)
                                                  d:/11.2 2022.02/bin/../lib/gcc/arm-none-eabi/11.2.1/thumb/v7e-m+fp/hard\libnosys.a(isatty.o)
                                                  d:/11.2 2022.02/bin/../lib/gcc/arm-none-eabi/11.2.1/thumb/v7e-m+fp/hard\libnosys.a(getpid.o)
                                                  d:/11.2 2022.02/bin/../lib/gcc/arm-none-eabi/11.2.1/thumb/v7e-m+fp/hard\libnosys.a(fstat.o)
                                                  d:/11.2 2022.02/bin/../lib/gcc/arm-none-eabi/11.2.1/thumb/v7e-m+fp/hard\libnosys.a(close.o)
                                                  d:/11.2 2022.02/bin/../lib/gcc/arm-none-eabi/11.2.1/thumb/v7e-m+fp/hard\libc.a(lib_a-readr.o)
                                                  d:/11.2 2022.02/bin/../lib/gcc/arm-none-eabi/11.2.1/thumb/v7e-m+fp/hard\libc.a(lib_a-lseekr.o)
                                                  d:/11.2 2022.02/bin/../lib/gcc/arm-none-eabi/11.2.1/thumb/v7e-m+fp/hard\libc.a(lib_a-isattyr.o)
                                                  d:/11.2 2022.02/bin/../lib/gcc/arm-none-eabi/11.2.1/thumb/v7e-m+fp/hard\libc.a(lib_a-fstatr.o)
                                                  d:/11.2 2022.02/bin/../lib/gcc/arm-none-eabi/11.2.1/thumb/v7e-m+fp/hard\libc.a(lib_a-closer.o)
                                                  d:/11.2 2022.02/bin/../lib/gcc/arm-none-eabi/11.2.1/thumb/v7e-m+fp/hard\libc.a(lib_a-writer.o)
                                                  d:/11.2 2022.02/bin/../lib/gcc/arm-none-eabi/11.2.1/thumb/v7e-m+fp/hard\libc.a(lib_a-signalr.o)
                                                  d:/11.2 2022.02/bin/../lib/gcc/arm-none-eabi/11.2.1/thumb/v7e-m+fp/hard\libc.a(lib_a-sbrkr.o)
exit                                              d:/11.2 2022.02/bin/../lib/gcc/arm-none-eabi/11.2.1/thumb/v7e-m+fp/hard\libc.a(lib_a-exit.o)
                                                  d:/11.2 2022.02/bin/../lib/gcc/arm-none-eabi/11.2.1/thumb/v7e-m+fp/hard/crt0.o
fclose                                            d:/11.2 2022.02/bin/../lib/gcc/arm-none-eabi/11.2.1/thumb/v7e-m+fp/hard\libc.a(lib_a-fclose.o)
fflush                                            d:/11.2 2022.02/bin/../lib/gcc/arm-none-eabi/11.2.1/thumb/v7e-m+fp/hard\libc.a(lib_a-fflush.o)
fiprintf                                          d:/11.2 2022.02/bin/../lib/gcc/arm-none-eabi/11.2.1/thumb/v7e-m+fp/hard\libc.a(lib_a-fiprintf.o)
                                                  d:/11.2 2022.02/bin/../lib/gcc/arm-none-eabi/11.2.1/thumb/v7e-m+fp/hard\libc.a(lib_a-assert.o)
floor                                             d:/11.2 2022.02/bin/../lib/gcc/arm-none-eabi/11.2.1/thumb/v7e-m+fp/hard\libm.a(lib_a-s_floor.o)
                                                  build/pid.o
fputwc                                            d:/11.2 2022.02/bin/../lib/gcc/arm-none-eabi/11.2.1/thumb/v7e-m+fp/hard\libc.a(lib_a-fputwc.o)
frexp                                             d:/11.2 2022.02/bin/../lib/gcc/arm-none-eabi/11.2.1/thumb/v7e-m+fp/hard\libc.a(lib_a-s_frexp.o)
                                                  d:/11.2 2022.02/bin/../lib/gcc/arm-none-eabi/11.2.1/thumb/v7e-m+fp/hard\libc.a(lib_a-svfprintf.o)
fuzzy_pid                                         build/pid.o
fuzzy_rule                                        build/pid.o
g_pfnVectors                                      build/startup_stm32f407xx.o
gameInfoMessage                                   build/zigbee_edc24.o
gameStatusMessage                                 build/zigbee_edc24.o
getGameStage                                      build/zigbee_edc24.o
getGameStatus                                     build/zigbee_edc24.o
getGameTime                                       build/zigbee_edc24.o
getHalfGameDuration                               build/zigbee_edc24.o
getLatestPendingOrder                             build/zigbee_edc24.o
getOneBarrier                                     build/zigbee_edc24.o
getOneOppPile                                     build/zigbee_edc24.o
getOneOrder                                       build/zigbee_edc24.o
getOneOwnPile                                     build/zigbee_edc24.o
getOppChargingPileNum                             build/zigbee_edc24.o
getOrderNum                                       build/zigbee_edc24.o
getOwnChargingPileNum                             build/zigbee_edc24.o
getRemainDist                                     build/zigbee_edc24.o
getScore                                          build/zigbee_edc24.o
getVehiclePos                                     build/zigbee_edc24.o
                                                  build/inverse_kinematics.o
hardware_init_hook                                d:/11.2 2022.02/bin/../lib/gcc/arm-none-eabi/11.2.1/thumb/v7e-m+fp/hard/crt0.o
hdma_uart4_rx                                     build/usart.o
                                                  build/stm32f4xx_it.o
hdma_uart5_rx                                     build/usart.o
                                                  build/stm32f4xx_it.o
htim1                                             build/tim.o
                                                  build/main.o
htim3                                             build/tim.o
                                                  build/main.o
htim4                                             build/tim.o
                                                  build/main.o
htim5                                             build/tim.o
                                                  build/main.o
htim8                                             build/tim.o
                                                  build/main.o
huart2                                            build/usart.o
huart4                                            build/usart.o
huart5                                            build/usart.o
i_rule                                            build/pid.o
localeconv                                        d:/11.2 2022.02/bin/../lib/gcc/arm-none-eabi/11.2.1/thumb/v7e-m+fp/hard\libc.a(lib_a-localeconv.o)
main                                              build/main.o
                                                  build/startup_stm32f407xx.o
                                                  d:/11.2 2022.02/bin/../lib/gcc/arm-none-eabi/11.2.1/thumb/v7e-m+fp/hard/crt0.o
membership                                        build/pid.o
memchr                                            d:/11.2 2022.02/bin/../lib/gcc/arm-none-eabi/11.2.1/thumb/v7e-m+fp/hard\libc.a(lib_a-memchr.o)
                                                  d:/11.2 2022.02/bin/../lib/gcc/arm-none-eabi/11.2.1/thumb/v7e-m+fp/hard\libc.a(lib_a-fvwrite.o)
                                                  d:/11.2 2022.02/bin/../lib/gcc/arm-none-eabi/11.2.1/thumb/v7e-m+fp/hard\libc.a(lib_a-vfiprintf.o)
                                                  d:/11.2 2022.02/bin/../lib/gcc/arm-none-eabi/11.2.1/thumb/v7e-m+fp/hard\libc.a(lib_a-svfiprintf.o)
                                                  d:/11.2 2022.02/bin/../lib/gcc/arm-none-eabi/11.2.1/thumb/v7e-m+fp/hard\libc.a(lib_a-svfprintf.o)
memcpy                                            d:/11.2 2022.02/bin/../lib/gcc/arm-none-eabi/11.2.1/thumb/v7e-m+fp/hard\libc.a(lib_a-memcpy.o)
                                                  d:/11.2 2022.02/bin/../lib/gcc/arm-none-eabi/11.2.1/thumb/v7e-m+fp/hard\libc.a(lib_a-fvwrite.o)
                                                  d:/11.2 2022.02/bin/../lib/gcc/arm-none-eabi/11.2.1/thumb/v7e-m+fp/hard\libc.a(lib_a-svfiprintf.o)
                                                  d:/11.2 2022.02/bin/../lib/gcc/arm-none-eabi/11.2.1/thumb/v7e-m+fp/hard\libc.a(lib_a-mprec.o)
                                                  d:/11.2 2022.02/bin/../lib/gcc/arm-none-eabi/11.2.1/thumb/v7e-m+fp/hard\libc.a(lib_a-dtoa.o)
memmove                                           d:/11.2 2022.02/bin/../lib/gcc/arm-none-eabi/11.2.1/thumb/v7e-m+fp/hard\libc.a(lib_a-memmove.o)
                                                  d:/11.2 2022.02/bin/../lib/gcc/arm-none-eabi/11.2.1/thumb/v7e-m+fp/hard\libc.a(lib_a-fvwrite.o)
                                                  d:/11.2 2022.02/bin/../lib/gcc/arm-none-eabi/11.2.1/thumb/v7e-m+fp/hard\libc.a(lib_a-reallocr.o)
                                                  d:/11.2 2022.02/bin/../lib/gcc/arm-none-eabi/11.2.1/thumb/v7e-m+fp/hard\libc.a(lib_a-svfiprintf.o)
memset                                            d:/11.2 2022.02/bin/../lib/gcc/arm-none-eabi/11.2.1/thumb/v7e-m+fp/hard\libc.a(lib_a-memset.o)
                                                  d:/11.2 2022.02/bin/../lib/gcc/arm-none-eabi/11.2.1/thumb/v7e-m+fp/hard\libc.a(lib_a-findfp.o)
                                                  d:/11.2 2022.02/bin/../lib/gcc/arm-none-eabi/11.2.1/thumb/v7e-m+fp/hard\libc.a(lib_a-vfiprintf.o)
                                                  d:/11.2 2022.02/bin/../lib/gcc/arm-none-eabi/11.2.1/thumb/v7e-m+fp/hard\libc.a(lib_a-callocr.o)
                                                  d:/11.2 2022.02/bin/../lib/gcc/arm-none-eabi/11.2.1/thumb/v7e-m+fp/hard\libc.a(lib_a-svfiprintf.o)
                                                  d:/11.2 2022.02/bin/../lib/gcc/arm-none-eabi/11.2.1/thumb/v7e-m+fp/hard\libc.a(lib_a-svfprintf.o)
                                                  build/zigbee_edc24.o
                                                  build/tim.o
                                                  build/main.o
                                                  d:/11.2 2022.02/bin/../lib/gcc/arm-none-eabi/11.2.1/thumb/v7e-m+fp/hard/crt0.o
pFlash                                            build/stm32f4xx_hal_flash.o
                                                  build/stm32f4xx_hal_flash_ex.o
p_rule                                            build/pid.o
pid_output                                        build/pid.o
raise                                             d:/11.2 2022.02/bin/../lib/gcc/arm-none-eabi/11.2.1/thumb/v7e-m+fp/hard\libc.a(lib_a-signal.o)
                                                  d:/11.2 2022.02/bin/../lib/gcc/arm-none-eabi/11.2.1/thumb/v7e-m+fp/hard\libc.a(lib_a-abort.o)
receive_flag                                      build/zigbee_edc24.o
reqGameInfo                                       build/zigbee_edc24.o
self_pos_time                                     build/inverse_kinematics.o
self_position_init                                build/inverse_kinematics.o
self_position_update                              build/inverse_kinematics.o
setChargingPile                                   build/zigbee_edc24.o
setlocale                                         d:/11.2 2022.02/bin/../lib/gcc/arm-none-eabi/11.2.1/thumb/v7e-m+fp/hard\libc.a(lib_a-locale.o)
signal                                            d:/11.2 2022.02/bin/../lib/gcc/arm-none-eabi/11.2.1/thumb/v7e-m+fp/hard\libc.a(lib_a-signal.o)
software_init_hook                                d:/11.2 2022.02/bin/../lib/gcc/arm-none-eabi/11.2.1/thumb/v7e-m+fp/hard/crt0.o
strcasecmp                                        d:/11.2 2022.02/bin/../lib/gcc/arm-none-eabi/11.2.1/thumb/v7e-m+fp/hard\libc.a(lib_a-strcasecmp.o)
                                                  d:/11.2 2022.02/bin/../lib/gcc/arm-none-eabi/11.2.1/thumb/v7e-m+fp/hard\libc.a(lib_a-locale.o)
strcat                                            d:/11.2 2022.02/bin/../lib/gcc/arm-none-eabi/11.2.1/thumb/v7e-m+fp/hard\libc.a(lib_a-strcat.o)
                                                  d:/11.2 2022.02/bin/../lib/gcc/arm-none-eabi/11.2.1/thumb/v7e-m+fp/hard\libc.a(lib_a-locale.o)
strchr                                            d:/11.2 2022.02/bin/../lib/gcc/arm-none-eabi/11.2.1/thumb/v7e-m+fp/hard\libc.a(lib_a-strchr.o)
                                                  d:/11.2 2022.02/bin/../lib/gcc/arm-none-eabi/11.2.1/thumb/v7e-m+fp/hard\libc.a(lib_a-locale.o)
strcmp                                            d:/11.2 2022.02/bin/../lib/gcc/arm-none-eabi/11.2.1/thumb/v7e-m+fp/hard\libc.a(lib_a-strcmp.o)
                                                  d:/11.2 2022.02/bin/../lib/gcc/arm-none-eabi/11.2.1/thumb/v7e-m+fp/hard\libc.a(lib_a-locale.o)
strcpy                                            d:/11.2 2022.02/bin/../lib/gcc/arm-none-eabi/11.2.1/thumb/v7e-m+fp/hard\libc.a(lib_a-strcpy.o)
                                                  d:/11.2 2022.02/bin/../lib/gcc/arm-none-eabi/11.2.1/thumb/v7e-m+fp/hard\libc.a(lib_a-strcat.o)
                                                  d:/11.2 2022.02/bin/../lib/gcc/arm-none-eabi/11.2.1/thumb/v7e-m+fp/hard\libc.a(lib_a-locale.o)
strlcpy                                           d:/11.2 2022.02/bin/../lib/gcc/arm-none-eabi/11.2.1/thumb/v7e-m+fp/hard\libc.a(lib_a-strlcpy.o)
                                                  d:/11.2 2022.02/bin/../lib/gcc/arm-none-eabi/11.2.1/thumb/v7e-m+fp/hard\libc.a(lib_a-locale.o)
strlen                                            d:/11.2 2022.02/bin/../lib/gcc/arm-none-eabi/11.2.1/thumb/v7e-m+fp/hard\libc.a(lib_a-strlen.o)
                                                  d:/11.2 2022.02/bin/../lib/gcc/arm-none-eabi/11.2.1/thumb/v7e-m+fp/hard\libc.a(lib_a-vfiprintf.o)
                                                  d:/11.2 2022.02/bin/../lib/gcc/arm-none-eabi/11.2.1/thumb/v7e-m+fp/hard\libc.a(lib_a-svfiprintf.o)
                                                  d:/11.2 2022.02/bin/../lib/gcc/arm-none-eabi/11.2.1/thumb/v7e-m+fp/hard\libc.a(lib_a-locale.o)
                                                  d:/11.2 2022.02/bin/../lib/gcc/arm-none-eabi/11.2.1/thumb/v7e-m+fp/hard\libc.a(lib_a-svfprintf.o)
                                                  build/usart.o
strncasecmp                                       d:/11.2 2022.02/bin/../lib/gcc/arm-none-eabi/11.2.1/thumb/v7e-m+fp/hard\libc.a(lib_a-strncasecmp.o)
                                                  d:/11.2 2022.02/bin/../lib/gcc/arm-none-eabi/11.2.1/thumb/v7e-m+fp/hard\libc.a(lib_a-locale.o)
strncmp                                           d:/11.2 2022.02/bin/../lib/gcc/arm-none-eabi/11.2.1/thumb/v7e-m+fp/hard\libc.a(lib_a-strncmp.o)
                                                  d:/11.2 2022.02/bin/../lib/gcc/arm-none-eabi/11.2.1/thumb/v7e-m+fp/hard\libc.a(lib_a-getenv_r.o)
strncpy                                           d:/11.2 2022.02/bin/../lib/gcc/arm-none-eabi/11.2.1/thumb/v7e-m+fp/hard\libc.a(lib_a-strncpy.o)
                                                  d:/11.2 2022.02/bin/../lib/gcc/arm-none-eabi/11.2.1/thumb/v7e-m+fp/hard\libc.a(lib_a-vfiprintf.o)
                                                  d:/11.2 2022.02/bin/../lib/gcc/arm-none-eabi/11.2.1/thumb/v7e-m+fp/hard\libc.a(lib_a-svfiprintf.o)
                                                  d:/11.2 2022.02/bin/../lib/gcc/arm-none-eabi/11.2.1/thumb/v7e-m+fp/hard\libc.a(lib_a-locale.o)
                                                  d:/11.2 2022.02/bin/../lib/gcc/arm-none-eabi/11.2.1/thumb/v7e-m+fp/hard\libc.a(lib_a-svfprintf.o)
strtol                                            d:/11.2 2022.02/bin/../lib/gcc/arm-none-eabi/11.2.1/thumb/v7e-m+fp/hard\libc.a(lib_a-strtol.o)
                                                  d:/11.2 2022.02/bin/../lib/gcc/arm-none-eabi/11.2.1/thumb/v7e-m+fp/hard\libc.a(lib_a-locale.o)
strtol_l                                          d:/11.2 2022.02/bin/../lib/gcc/arm-none-eabi/11.2.1/thumb/v7e-m+fp/hard\libc.a(lib_a-strtol.o)
u1_printf                                         build/usart.o
                                                  build/main.o
uwTick                                            build/stm32f4xx_hal.o
uwTickFreq                                        build/stm32f4xx_hal.o
uwTickPrio                                        build/stm32f4xx_hal.o
                                                  build/stm32f4xx_hal_rcc_ex.o
                                                  build/stm32f4xx_hal_rcc.o
vfiprintf                                         d:/11.2 2022.02/bin/../lib/gcc/arm-none-eabi/11.2.1/thumb/v7e-m+fp/hard\libc.a(lib_a-vfiprintf.o)
vsprintf                                          d:/11.2 2022.02/bin/../lib/gcc/arm-none-eabi/11.2.1/thumb/v7e-m+fp/hard\libc.a(lib_a-vsprintf.o)
                                                  build/usart.o
wcrtomb                                           d:/11.2 2022.02/bin/../lib/gcc/arm-none-eabi/11.2.1/thumb/v7e-m+fp/hard\libc.a(lib_a-wcrtomb.o)
wcsnrtombs                                        d:/11.2 2022.02/bin/../lib/gcc/arm-none-eabi/11.2.1/thumb/v7e-m+fp/hard\libc.a(lib_a-wcsnrtombs.o)
wcsrtombs                                         d:/11.2 2022.02/bin/../lib/gcc/arm-none-eabi/11.2.1/thumb/v7e-m+fp/hard\libc.a(lib_a-wcsrtombs.o)
wheel_getVel                                      build/pid.o
                                                  build/main.o
wheel_init                                        build/pid.o
                                                  build/main.o
wheel_lb                                          build/main.o
wheel_lf                                          build/main.o
wheel_pwm                                         build/pid.o
                                                  build/main.o
wheel_rb                                          build/main.o
wheel_reverse                                     build/pid.o
wheel_rf                                          build/main.o
zigbeeMessage                                     build/zigbee_edc24.o
zigbeeMessageRecord                               build/zigbee_edc24.o
zigbeeSend                                        build/zigbee_edc24.o
zigbee_Init                                       build/zigbee_edc24.o
zigbee_huart                                      build/zigbee_edc24.o
